     1                     ;============================================================
     2                     ;	Project:		MTF351_ASM_TEMP
     3                     ;	FILE:			MTF351_ASM_TEMP.asm
     4                     ;  	Target:  		MTF351
     5                     ;	Author:			Arthur (Lu Hungche)
     6                     ;	Date:			2020/03/11
     7                     ;------------------------------------------------------------
     8                     ;	Description:	For MTF351 Instruction and EFT Verify
     9                     ;	Active-Low: P50(Red-PWR)、P51(Yel-PUSH)、
    10                     ;					
    11                     ;------------------------------------------------------------
    12                     ; History:
    13                     ; Ver  | dd-mmm-yyyy |  Who  | Description of changes
    14                     ; =====|=============|=======|===============================
    15                     ;  0.1 | 11 Mat 2020 |Arthur | Original Release.
    16                     ; -----|-------------|-------|-------------------------------
    17                     ;  0.2 |
    18                     ; -----|-------------|-------|-------------------------------
    19                     ;============================================================
    20                     
    21                     ;==================== Project Include ====================
    22                     Include	"MTF351.INC"
     1            C        ;======================================================;
     2            C        ;  Title:       EM88F758N Include File                 ;
     3            C        ;  Description: The Definition of EM88F758N Registers  ;
     4            C        ;  Company:     ELAN MICROELECTRONICS LTD.	       	   ;
     5            C        ;  Date:        2014/12/03                             ;
     6            C        ;======================================================;
     7            C        
     8            C        ;======================================================;
     9            C        ; Operational Registers Define                         ;
    10            C        ;======================================================;
    11            C        ;======================================================;
    12            C        ; Registers R0~R4                                      ;
    13            C        ;======================================================;
    14            C        ; IAR: Indirect Address Register
    15       2000 C        IAR     ==    0x00:rpage 0
    15 00000 0010 C        IAR     ==    0x00:rpage 0
    16            C        
    17            C        ; BSR: Bank Selection Control Register
    18       2001 C        BSR     ==    0x01:rpage 0
    18 00000 0010 C        BSR     ==    0x01:rpage 0
    19       2001 C        	SBS1	==	BSR.5
    19 00000 0540 C        	SBS1	==	BSR.5
    20       2001 C        	SBS0	==	BSR.4
    20 00000 0440 C        	SBS0	==	BSR.4
    21       2001 C        	GBS0	==	BSR.0
    21 00000 0040 C        	GBS0	==	BSR.0
    22            C        
    23            C        ; PC: Program Counter Low
    24       2002 C        PCL      ==    0x02:rpage 0
    24 00000 0010 C        PCL      ==    0x02:rpage 0
    25            C        
    26            C        ; PSR: Process Status Register
    27       2003 C        STATUS  ==    0x03:rpage 0
    27 00000 0010 C        STATUS  ==    0x03:rpage 0
    28       2003 C        	IT	==  STATUS.7    ; Interrupt mask bit
    28 00000 0740 C        	IT	==  STATUS.7    ; Interrupt mask bit
    29       2003 C        	N       ==  STATUS.6    ; Negative bit
    29 00000 0640 C        	N       ==  STATUS.6    ; Negative bit
    30       2003 C        	OV      ==  STATUS.5    ; Overflow bit
    30 00000 0540 C        	OV      ==  STATUS.5    ; Overflow bit
    31       2003 C        	T       ==  STATUS.4    ; Time-out bit
    31 00000 0440 C        	T       ==  STATUS.4    ; Time-out bit
    32       2003 C        	P       ==  STATUS.3    ; Power-down bit
    32 00000 0340 C        	P       ==  STATUS.3    ; Power-down bit
    33       2003 C        	Z       ==  STATUS.2    ; Zero flag
    33 00000 0240 C        	Z       ==  STATUS.2    ; Zero flag
    34       2003 C        	DC      ==  STATUS.1    ; Auxiliary carry flag
    34 00000 0140 C        	DC      ==  STATUS.1    ; Auxiliary carry flag
    35       2003 C        	C       ==  STATUS.0    ; Carry flag
    35 00000 0040 C        	C       ==  STATUS.0    ; Carry flag
    36            C        
    37            C        ; RSR: RAM Select Register
    38       2004 C        RSR     ==    0x04:rpage 0
    38 00000 0010 C        RSR     ==    0x04:rpage 0
    39            C        
    40            C        
    41            C        ;======================================================
    42            C        ;      BANK 0 Registers                                   
    43            C        ;======================================================
    44            C        ; R5 ~ RA: I/O Port Address
    45       2005 C        P5      ==    0x05:rpage 0
    45 00000 0010 C        P5      ==    0x05:rpage 0
    46       2006 C        P6      ==    0x06:rpage 0
    46 00000 0010 C        P6      ==    0x06:rpage 0
    47       2007 C        P7	==    0x07:rpage 0
    47 00000 0010 C        P7	==    0x07:rpage 0
    48       2005 C        PORT5   ==    0x05:rpage 0
    48 00000 0010 C        PORT5   ==    0x05:rpage 0
    49       2006 C        PORT6   ==    0x06:rpage 0
    49 00000 0010 C        PORT6   ==    0x06:rpage 0
    50       2007 C        PORT7   ==    0x07:rpage 0
    50 00000 0010 C        PORT7   ==    0x07:rpage 0
    51            C        
    52            C        ; RB ~ RD: I/O Control Register
    53       200B C        IOCR5	==    0x0B:rpage 0
    53 00000 0010 C        IOCR5	==    0x0B:rpage 0
    54       200C C        IOCR6	==    0x0C:rpage 0
    54 00000 0010 C        IOCR6	==    0x0C:rpage 0
    55       200D C        IOCR7	==    0x0D:rpage 0
    55 00000 0010 C        IOCR7	==    0x0D:rpage 0
    56            C        
    57            C        ; OMCR:Operating Mode Control Register
    58       200E C        OMCR 	==    0x0E:rpage 0
    58 00000 0010 C        OMCR 	==    0x0E:rpage 0
    59       200E C        	CPUS	==	OMCR.7			;CPU Osillator Source Select
    59 00000 0740 C        	CPUS	==	OMCR.7			;CPU Osillator Source Select
    60       200E C        	IDLE	==	OMCR.6			;Idle Mode Enable Bit.
    60 00000 0640 C        	IDLE	==	OMCR.6			;Idle Mode Enable Bit.
    61       200E C        	CLK2	==	OMCR.5
    61 00000 0540 C        	CLK2	==	OMCR.5
    62       200E C        	CLK1	==	OMCR.4
    62 00000 0440 C        	CLK1	==	OMCR.4
    63       200E C        	CLK0	==	OMCR.3
    63 00000 0340 C        	CLK0	==	OMCR.3
    64            C        	
    65       200E C        	RCM1	==	OMCR.1
    65 00000 0140 C        	RCM1	==	OMCR.1
    66       200E C        	RCM0	==	OMCR.0
    66 00000 0040 C        	RCM0	==	OMCR.0
    67            C        						
    68            C        ; EIESCR:External interrupt Edge Select Register
    69       200F C        EIESCR  ==    0x0F:rpage 0
    69 00000 0010 C        EIESCR  ==    0x0F:rpage 0
    70       200F C        	EIES1	==	EIESCR.3
    70 00000 0340 C        	EIES1	==	EIESCR.3
    71       200F C        	EIES0	==	EIESCR.2
    71 00000 0240 C        	EIES0	==	EIESCR.2
    72            C        
    73            C        ; WUCR1:Wake-up Control Register 1
    74       2010 C        WUCR1 	==    0x10:rpage 0
    74 00000 0010 C        WUCR1 	==    0x10:rpage 0
    75       2010 C        	CMP2WK	==	WUCR1.7
    75 00000 0740 C        	CMP2WK	==	WUCR1.7
    76       2010 C        	CMP1WK	==	WUCR1.6
    76 00000 0640 C        	CMP1WK	==	WUCR1.6
    77       2010 C        	LVDWK	==	WUCR1.5
    77 00000 0540 C        	LVDWK	==	WUCR1.5
    78       2010 C        	ADWK	==	WUCR1.4
    78 00000 0440 C        	ADWK	==	WUCR1.4
    79       2010 C        	INT1WK	==	WUCR1.3
    79 00000 0340 C        	INT1WK	==	WUCR1.3
    80       2010 C        	INT0WK	==	WUCR1.2
    80 00000 0240 C        	INT0WK	==	WUCR1.2
    81            C        
    82            C        ; Reserver 0x11
    83            C        
    84            C        ; WUCR3:Wake-up Control Register 3
    85       2012 C        WUCR3  ==    0x12:rpage 0
    85 00000 0010 C        WUCR3  ==    0x12:rpage 0
    86       2012 C        	ICWKP7	==	WUCR3.6
    86 00000 0640 C        	ICWKP7	==	WUCR3.6
    87       2012 C        	ICWKP6	==	WUCR3.5
    87 00000 0540 C        	ICWKP6	==	WUCR3.5
    88       2012 C        	ICWKP5	==	WUCR3.4
    88 00000 0440 C        	ICWKP5	==	WUCR3.4
    89            C        
    90            C        ; SFR1:Status Flag Register 1
    91       2014 C        SFR1 	==    0x14:rpage 0
    91 00000 0010 C        SFR1 	==    0x14:rpage 0
    92       2014 C        	CMP2SF	==	SFR1.7
    92 00000 0740 C        	CMP2SF	==	SFR1.7
    93       2014 C        	CMP1SF	==	SFR1.6
    93 00000 0640 C        	CMP1SF	==	SFR1.6
    94       2014 C        	LVDSF	==	SFR1.5
    94 00000 0540 C        	LVDSF	==	SFR1.5
    95       2014 C        	ADSF	==	SFR1.4
    95 00000 0440 C        	ADSF	==	SFR1.4
    96       2014 C        	EXSF1	==	SFR1.3
    96 00000 0340 C        	EXSF1	==	SFR1.3
    97       2014 C        	EXSF0	==	SFR1.2
    97 00000 0240 C        	EXSF0	==	SFR1.2
    98            C        
    99            C        ; SFR2:Status Flag Register 2
   100            C        ;SFR2 	==    0x15:rpage 0
   101            C        
   102            C        ; SFR3:Status Flag Register 3
   103            C        ;SFR3 	==    0x16:rpage 0
   104            C        
   105            C        ; SFR4:Status Flag Register 4
   106       2017 C        SFR4	==    0x17:rpage 0
   106 00000 0010 C        SFR4	==    0x17:rpage 0
   107       2017 C        	P7ICSF	==	SFR4.6
   107 00000 0640 C        	P7ICSF	==	SFR4.6
   108       2017 C        	P6ICSF	==	SFR4.5
   108 00000 0540 C        	P6ICSF	==	SFR4.5
   109       2017 C        	P5ICSF	==	SFR4.4
   109 00000 0440 C        	P5ICSF	==	SFR4.4
   110            C        
   111            C        ; SFR6:Status Flag Register 6
   112       2019 C        SFR6	==    0x19:rpage 0
   112 00000 0010 C        SFR6	==    0x19:rpage 0
   113       2019 C        	SHSF	==	SFR6.7
   113 00000 0740 C        	SHSF	==	SFR6.7
   114            C        
   115            C        ; IMR1:Interrupt Mask Register 1
   116       201B C        IMR1 	==    0x1B:rpage 0
   116 00000 0010 C        IMR1 	==    0x1B:rpage 0
   117       201B C        	CMP2IE	==	IMR1.7
   117 00000 0740 C        	CMP2IE	==	IMR1.7
   118       201B C        	CMP1IE	==	IMR1.6
   118 00000 0640 C        	CMP1IE	==	IMR1.6
   119       201B C        	LVDIE	==	IMR1.5
   119 00000 0540 C        	LVDIE	==	IMR1.5
   120       201B C        	ADIE	==	IMR1.4
   120 00000 0440 C        	ADIE	==	IMR1.4
   121       201B C        	EXIE1	==	IMR1.3
   121 00000 0340 C        	EXIE1	==	IMR1.3
   122       201B C        	EXIE0	==	IMR1.2
   122 00000 0240 C        	EXIE0	==	IMR1.2
   123            C        
   124            C        ; IMR2:Interrupt Mask Register 2
   125            C        ;IMR2 	==    0x1C:rpage 0
   126            C        ;	CMP4IE	==	IMR2.7
   127            C        ;	CMP3IE	==	IMR2.6
   128            C        
   129            C        ; IMR3:Interrupt Mask Register 3
   130            C        ;IMR3 	==    0x1D:rpage 0
   131            C        
   132            C        ; IMR4:Interrupt Mask Register 4
   133       201E C        IMR4 	==    0x1E:rpage 0
   133 00000 0010 C        IMR4 	==    0x1E:rpage 0
   134       201E C        	P7ICIE	==	IMR4.6
   134 00000 0640 C        	P7ICIE	==	IMR4.6
   135       201E C        	P6ICIE	==	IMR4.5
   135 00000 0540 C        	P6ICIE	==	IMR4.5
   136       201E C        	P5ICIE	==	IMR4.4
   136 00000 0440 C        	P5ICIE	==	IMR4.4
   137            C        
   138            C        ; IMR6:Interrupt Mask Register 6
   139       2020 C        IMR6 	==    0x20:rpage 0
   139 00000 0010 C        IMR6 	==    0x20:rpage 0
   140       2020 C        	SHIE	==	IMR6.7
   140 00000 0740 C        	SHIE	==	IMR6.7
   141            C        
   142            C        ; WDTCR:Watch Dog Timer Control Register
   143       2021 C        WDTCR 	==    0x21:rpage 0
   143 00000 0010 C        WDTCR 	==    0x21:rpage 0
   144       2021 C        	WDTE	==	WDTCR.7
   144 00000 0740 C        	WDTE	==	WDTCR.7
   145       2021 C        	PSWE	==	WDTCR.3
   145 00000 0340 C        	PSWE	==	WDTCR.3
   146       2021 C        	WPSR2	==	WDTCR.2
   146 00000 0240 C        	WPSR2	==	WDTCR.2
   147       2021 C        	WPSR1	==	WDTCR.1
   147 00000 0140 C        	WPSR1	==	WDTCR.1
   148       2021 C        	WPSR0	==	WDTCR.0
   148 00000 0040 C        	WPSR0	==	WDTCR.0
   149            C        
   150            C        ; Reserver 0x22~0x3D
   151            C        
   152            C        ; ADCR1:ADC Control Register 1
   153       203E C        ADCR1	==   0x3E:rpage 0
   153 00000 0010 C        ADCR1	==   0x3E:rpage 0
   154       203E C        	CKR2		==	ADCR1.7
   154 00000 0740 C        	CKR2		==	ADCR1.7
   155       203E C        	CKR1		==	ADCR1.6
   155 00000 0640 C        	CKR1		==	ADCR1.6
   156       203E C        	CKR0		==	ADCR1.5
   156 00000 0540 C        	CKR0		==	ADCR1.5
   157       203E C        	ADRUN		==	ADCR1.4
   157 00000 0440 C        	ADRUN		==	ADCR1.4
   158       203E C        	ADP		==	ADCR1.3
   158 00000 0340 C        	ADP		==	ADCR1.3
   159       203E C        	ADOM		==	ADCR1.2
   159 00000 0240 C        	ADOM		==	ADCR1.2
   160       203E C        	SHS1		==	ADCR1.1
   160 00000 0140 C        	SHS1		==	ADCR1.1
   161       203E C        	SHS0		==	ADCR1.0
   161 00000 0040 C        	SHS0		==	ADCR1.0
   162            C        
   163            C        ; ADCR2:ADC Control Register 2
   164       203F C        ADCR2	==   0x3F:rpage 0
   164 00000 0010 C        ADCR2	==   0x3F:rpage 0
   165       203F C        	VPIS2		==	ADCR2.6
   165 00000 0640 C        	VPIS2		==	ADCR2.6
   166       203F C        	ADIM		==	ADCR2.5
   166 00000 0540 C        	ADIM		==	ADCR2.5
   167       203F C        	ADCMS		==	ADCR2.4
   167 00000 0440 C        	ADCMS		==	ADCR2.4
   168       203F C        	VPIS1		==	ADCR2.3
   168 00000 0340 C        	VPIS1		==	ADCR2.3
   169       203F C        	VPIS0		==	ADCR2.2
   169 00000 0240 C        	VPIS0		==	ADCR2.2
   170       203F C        	VREFP		==	ADCR2.1
   170 00000 0140 C        	VREFP		==	ADCR2.1
   171            C        
   172            C        ; ADISR:ADC Input Channel Selection Register
   173       2040 C        ADISR	==   0x40:rpage 0
   173 00000 0010 C        ADISR	==   0x40:rpage 0
   174       2040 C        	STPMK		==	ADISR.7
   174 00000 0740 C        	STPMK		==	ADISR.7
   175            C        
   176       2040 C        	ADIS3		==	ADISR.3
   176 00000 0340 C        	ADIS3		==	ADISR.3
   177       2040 C        	ADIS2		==	ADISR.2
   177 00000 0240 C        	ADIS2		==	ADISR.2
   178       2040 C        	ADIS1		==	ADISR.1
   178 00000 0140 C        	ADIS1		==	ADISR.1
   179       2040 C        	ADIS0		==	ADISR.0	
   179 00000 0040 C        	ADIS0		==	ADISR.0	
   180            C        
   181            C        ; ADER1:ADC Input Control Register 1
   182       2041 C        ADER1	==   0x41:rpage 0
   182 00000 0010 C        ADER1	==   0x41:rpage 0
   183       2041 C        	ADE7		==	ADER1.7
   183 00000 0740 C        	ADE7		==	ADER1.7
   184       2041 C        	ADE6		==	ADER1.6
   184 00000 0640 C        	ADE6		==	ADER1.6
   185       2041 C        	ADE5		==	ADER1.5
   185 00000 0540 C        	ADE5		==	ADER1.5
   186       2041 C        	ADE4		==	ADER1.4
   186 00000 0440 C        	ADE4		==	ADER1.4
   187       2041 C        	ADE3		==	ADER1.3
   187 00000 0340 C        	ADE3		==	ADER1.3
   188       2041 C        	ADE2		==	ADER1.2
   188 00000 0240 C        	ADE2		==	ADER1.2
   189       2041 C        	ADE1		==	ADER1.1
   189 00000 0140 C        	ADE1		==	ADER1.1
   190       2041 C        	ADE0		==	ADER1.0
   190 00000 0040 C        	ADE0		==	ADER1.0
   191            C        
   192            C        ; Reserve 0x42
   193            C        
   194            C        ; ADDL:Low Byte of ADC Data Buffer
   195       2043 C        ADDL	==   0x43:rpage 0
   195 00000 0010 C        ADDL	==   0x43:rpage 0
   196            C        
   197            C        ; ADDH:High Byte of ADC Data Buffer
   198       2044 C        ADDH	==   0x44:rpage 0
   198 00000 0010 C        ADDH	==   0x44:rpage 0
   199            C        
   200            C        ; ADCVL:Low Byte of ADC Comparison
   201       2045 C        ADCVL	==   0x45:rpage 0
   201 00000 0010 C        ADCVL	==   0x45:rpage 0
   202            C        
   203            C        ; ADCVH:High Byte of ADC Comparison
   204       2046 C        ADCVH	==   0x46:rpage 0
   204 00000 0010 C        ADCVH	==   0x46:rpage 0
   205            C        
   206            C        ; ADCONBUF:High Byte of ADC Comparison
   207       2047 C        ADCONBUF==   0x47:rpage 0
   207 00000 0010 C        ADCONBUF==   0x47:rpage 0
   208       2047 C        	ADBFEN		==	ADCONBUF.7
   208 00000 0740 C        	ADBFEN		==	ADCONBUF.7
   209       2047 C        	ADBFOVR		==	ADCONBUF.6
   209 00000 0640 C        	ADBFOVR		==	ADCONBUF.6
   210       2047 C        	ADBFINT		==	ADCONBUF.5
   210 00000 0540 C        	ADBFINT		==	ADCONBUF.5
   211            C        
   212       2047 C        	ADBFPTR2	==	ADCONBUF.2
   212 00000 0240 C        	ADBFPTR2	==	ADCONBUF.2
   213       2047 C        	ADBFPTR1	==	ADCONBUF.1
   213 00000 0140 C        	ADBFPTR1	==	ADCONBUF.1
   214       2047 C        	ADBFPTR0	==	ADCONBUF.0
   214 00000 0040 C        	ADBFPTR0	==	ADCONBUF.0
   215            C        
   216            C        ;Reserve 0x48~0x4F
   217            C        
   218            C        ;======================================================
   219            C        ;      BANK 1 Registers                                
   220            C        ;======================================================
   221            C        ; P5PHCR:Port 5 Pull-high Control Rgister
   222       2008 C        P5PHCR	==    0x08:rpage 1
   222 00000 0011 C        P5PHCR	==    0x08:rpage 1
   223            C        
   224            C        ; P6PHCR:Port 6 Pull-high Control Rgister
   225       2009 C        P6PHCR	==    0x09:rpage 1
   225 00000 0011 C        P6PHCR	==    0x09:rpage 1
   226            C        
   227            C        ; P7PHCR:Port 7 Pull-high Control Rgister
   228       200A C        P7PHCR ==    0x0A:rpage 1
   228 00000 0011 C        P7PHCR ==    0x0A:rpage 1
   229       200A C        	P7LPH		==	P7PHCR.0
   229 00000 0041 C        	P7LPH		==	P7PHCR.0
   230            C        
   231            C        ; P5PLCR:Port 5 Pull-low Control Register
   232       200B C        P5PLCR	==    0x0B:rpage 1
   232 00000 0011 C        P5PLCR	==    0x0B:rpage 1
   233            C        
   234            C        ; P6PLCR:Port 6 Pull-low Control Register
   235       200C C        P6PLCR	==    0x0C:rpage 1
   235 00000 0011 C        P6PLCR	==    0x0C:rpage 1
   236            C        
   237            C        ; P7PLCR:Port 7 Pull-low Control Register
   238       200D C        P7PLCR ==    0x0D:rpage 1
   238 00000 0011 C        P7PLCR ==    0x0D:rpage 1
   239       200D C        	P7LPL		==	P7PLCR.0
   239 00000 0041 C        	P7LPL		==	P7PLCR.0
   240            C        
   241            C        ; P5HDSCR:Port 5 High Drive Control Register
   242       200E C        P5HDSCR	==    0x0E:rpage 1
   242 00000 0011 C        P5HDSCR	==    0x0E:rpage 1
   243            C        
   244            C        ; P6HDSCR:Port 6 High Drive Control Register
   245       200F C        P6HDSCR	==    0x0F:rpage 1
   245 00000 0011 C        P6HDSCR	==    0x0F:rpage 1
   246            C        
   247            C        ; P7HDSCR:Port 7 High Drive Control Register
   248       2010 C        P7HDSCR ==    0x10:rpage 1
   248 00000 0011 C        P7HDSCR ==    0x10:rpage 1
   249       2010 C        	P7LHDS		==	P7HDSCR.0
   249 00000 0041 C        	P7LHDS		==	P7HDSCR.0
   250            C        
   251            C        ; P5ODCR:Port 5 Open-drain control Register
   252       2011 C        P5ODCR	==    0x11:rpage 1
   252 00000 0011 C        P5ODCR	==    0x11:rpage 1
   253            C        
   254            C        ; P6ODCR:Port 6 Open-drain control Register
   255       2012 C        P6ODCR	==    0x12:rpage 1
   255 00000 0011 C        P6ODCR	==    0x12:rpage 1
   256            C        
   257            C        ; P7ODCR:Port 7 Open-drain control Register
   258       2013 C        P7ODCR ==    0x13:rpage 1
   258 00000 0011 C        P7ODCR ==    0x13:rpage 1
   259       2013 C        	P7LOD		==	P7ODCR.0
   259 00000 0041 C        	P7LOD		==	P7ODCR.0
   260            C        
   261            C        ;Reserve 0x14~0x43
   262            C        
   263            C        ; FLKR:Flash Key Register for Table Write
   264       2044 C        FLKR	==    0x44:rpage 1
   264 00000 0011 C        FLKR	==    0x44:rpage 1
   265            C        
   266            C        ; TBPTL:Table Point Low Register
   267       2045 C        TBPTL	==    0x45:rpage 1
   267 00000 0011 C        TBPTL	==    0x45:rpage 1
   268            C        
   269            C        ; TBPTH:Table Point High Register
   270       2046 C        TBPTH	==    0x46:rpage 1
   270 00000 0011 C        TBPTH	==    0x46:rpage 1
   271       2046 C        	HLB		==	TBPTH.7
   271 00000 0741 C        	HLB		==	TBPTH.7
   272       2046 C        	RDS		==	TBPTH.6
   272 00000 0641 C        	RDS		==	TBPTH.6
   273            C        
   274            C        ; STKMON:Stack Point
   275       2047 C        STKMON	==    0x47:rpage 1
   275 00000 0011 C        STKMON	==    0x47:rpage 1
   276       2047 C        	STOV	==	STKMON.7
   276 00000 0741 C        	STOV	==	STKMON.7
   277       2047 C        	STL2	==	STKMON.2
   277 00000 0241 C        	STL2	==	STKMON.2
   278       2047 C        	STL1	==	STKMON.1
   278 00000 0141 C        	STL1	==	STKMON.1
   279       2047 C        	STL0	==	STKMON.0
   279 00000 0041 C        	STL0	==	STKMON.0
   280            C        
   281            C        ; PCH:Program Counter High
   282       2048 C        PCH	==    0x48:rpage 1
   282 00000 0011 C        PCH	==    0x48:rpage 1
   283            C        
   284            C        ; LVDCR:Low Voltage Detector Control Register
   285       2049 C        LVDCR	==    0x49:rpage 1
   285 00000 0011 C        LVDCR	==    0x49:rpage 1
   286       2049 C        	LVDEN		==	LVDCR.7
   286 00000 0741 C        	LVDEN		==	LVDCR.7
   287       2049 C        	LVDB		==	LVDCR.3		; LVD Status
   287 00000 0341 C        	LVDB		==	LVDCR.3		; LVD Status
   288            C        
   289            C        ; COBS1:Code Option Bit Selection Register 1
   290       204A C        COBS1	==    0x4A:rpage 1
   290 00000 0011 C        COBS1	==    0x4A:rpage 1
   291       204A C        	HLFS		==	COBS1.7
   291 00000 0741 C        	HLFS		==	COBS1.7
   292       204A C        	RESETEN		==	COBS1.6
   292 00000 0641 C        	RESETEN		==	COBS1.6
   293       204A C        	ENWDT		==	COBS1.5
   293 00000 0541 C        	ENWDT		==	COBS1.5
   294       204A C        	ADFM		==	COBS1.2
   294 00000 0241 C        	ADFM		==	COBS1.2
   295            C        
   296            C        ; COBS2:Code Option Bit Selection Register 2
   297            C        ;COBS2	==    0x4B:rpage 1
   298            C        
   299            C        ; COBS3:Code Option Bit Selection Register 3
   300       204C C        COBS3	==    0x4C:rpage 1
   300 00000 0011 C        COBS3	==    0x4C:rpage 1
   301       204C C        	FSS0		==	COBS3.5
   301 00000 0541 C        	FSS0		==	COBS3.5
   302       204C C        	SC4		==	COBS3.4
   302 00000 0441 C        	SC4		==	COBS3.4
   303       204C C        	SC3		==	COBS3.3
   303 00000 0341 C        	SC3		==	COBS3.3
   304       204C C        	SC2		==	COBS3.2
   304 00000 0241 C        	SC2		==	COBS3.2
   305       204C C        	SC1		==	COBS3.1
   305 00000 0141 C        	SC1		==	COBS3.1
   306       204C C        	SC0		==	COBS3.0
   306 00000 0041 C        	SC0		==	COBS3.0
   307            C        
   308            C        ; TBWCR:Table Write Control Register
   309       204D C        TBWCR	==    0x4D:rpage 1
   309 00000 0011 C        TBWCR	==    0x4D:rpage 1
   310       204D C        	IAPEN		==	TBWCR.0
   310 00000 0041 C        	IAPEN		==	TBWCR.0
   311            C        
   312            C        ; TBWAL:Table Write Start Address Low Byte
   313       204E C        TBWAL	==    0x4E:rpage 1
   313 00000 0011 C        TBWAL	==    0x4E:rpage 1
   314            C        
   315            C        ; TBWAH:Table Write Start Address Low Byte
   316       204F C        TBWAH	==    0x4F:rpage 1
   316 00000 0011 C        TBWAH	==    0x4F:rpage 1
   317            C        
   318            C        
   319            C        ;======================================================
   320            C        ;      BANK 2 Registers                                
   321            C        ;======================================================
   322            C        ; TM1CR1:
   323       2005 C        TM1CR1	==    0x05:rpage 2
   323 00000 0012 C        TM1CR1	==    0x05:rpage 2
   324       2005 C        	TM1S		==	TM1CR1.7
   324 00000 0742 C        	TM1S		==	TM1CR1.7
   325       2005 C        	TM1RC		==	TM1CR1.6
   325 00000 0642 C        	TM1RC		==	TM1CR1.6
   326       2005 C        	TM1SS1		==	TM1CR1.5
   326 00000 0542 C        	TM1SS1		==	TM1CR1.5
   327            C        
   328       2005 C        	TM1FF		==	TM1CR1.3
   328 00000 0342 C        	TM1FF		==	TM1CR1.3
   329       2005 C        	TM1MOS		==	TM1CR1.2
   329 00000 0242 C        	TM1MOS		==	TM1CR1.2
   330       2005 C        	TM1IS1		==	TM1CR1.1
   330 00000 0142 C        	TM1IS1		==	TM1CR1.1
   331       2005 C        	TM1IS0		==	TM1CR1.0
   331 00000 0042 C        	TM1IS0		==	TM1CR1.0
   332            C        
   333            C        ; TM1CR2:
   334       2006 C        TM1CR2	==    0x06:rpage 2
   334 00000 0012 C        TM1CR2	==    0x06:rpage 2
   335            C        
   336            C        ; TM1DBH:
   337       2007 C        TM1DBH	==    0x07:rpage 2
   337 00000 0012 C        TM1DBH	==    0x07:rpage 2
   338            C        
   339            C        ; TM1DBL:
   340       2008 C        TM1DBL	==    0x08:rpage 2
   340 00000 0012 C        TM1DBL	==    0x08:rpage 2
   341            C        
   342            C        ; TM1DAH:
   343       2009 C        TM1DAH	==    0x09:rpage 2
   343 00000 0012 C        TM1DAH	==    0x09:rpage 2
   344            C        
   345            C        ; TM1DAL:
   346       200A C        TM1DAL	==    0x0A:rpage 2
   346 00000 0012 C        TM1DAL	==    0x0A:rpage 2
   347            C        
   348            C        ; TM2CR1:
   349       200B C        TM2CR1	==    0x0B:rpage 2
   349 00000 0012 C        TM2CR1	==    0x0B:rpage 2
   350       200B C        	TM2S		==	TM2CR1.7
   350 00000 0742 C        	TM2S		==	TM2CR1.7
   351       200B C        	TM2RC		==	TM2CR1.6
   351 00000 0642 C        	TM2RC		==	TM2CR1.6
   352       200B C        	TM2SS1		==	TM2CR1.5
   352 00000 0542 C        	TM2SS1		==	TM2CR1.5
   353       200B C        	TM2FF		==	TM2CR1.3
   353 00000 0342 C        	TM2FF		==	TM2CR1.3
   354       200B C        	TM2MOS		==	TM2CR1.2
   354 00000 0242 C        	TM2MOS		==	TM2CR1.2
   355       200B C        	TM2IS1		==	TM2CR1.1
   355 00000 0142 C        	TM2IS1		==	TM2CR1.1
   356       200B C        	TM2IS0		==	TM2CR1.0
   356 00000 0042 C        	TM2IS0		==	TM2CR1.0
   357            C        
   358            C        ; TM2CR2:
   359       200C C        TM2CR2	==    0x0C:rpage 2
   359 00000 0012 C        TM2CR2	==    0x0C:rpage 2
   360            C        
   361            C        ; TM2DBH:
   362       200D C        TM2DBH	==    0x0D:rpage 2
   362 00000 0012 C        TM2DBH	==    0x0D:rpage 2
   363            C        
   364            C        ; TM2DBL:
   365       200E C        TM2DBL	==    0x0E:rpage 2
   365 00000 0012 C        TM2DBL	==    0x0E:rpage 2
   366            C        
   367            C        ; TM2DAH:
   368       200F C        TM2DAH	==    0x0F:rpage 2
   368 00000 0012 C        TM2DAH	==    0x0F:rpage 2
   369            C        
   370            C        ; TM2DAL:
   371       2010 C        TM2DAL	==    0x10:rpage 2
   371 00000 0012 C        TM2DAL	==    0x10:rpage 2
   372            C        
   373            C        ; TM3CR1:
   374       2011 C        TM3CR1	==    0x11:rpage 2
   374 00000 0012 C        TM3CR1	==    0x11:rpage 2
   375       2011 C        	TM3S		==	TM3CR1.7
   375 00000 0742 C        	TM3S		==	TM3CR1.7
   376       2011 C        	TM3RC		==	TM3CR1.6
   376 00000 0642 C        	TM3RC		==	TM3CR1.6
   377       2011 C        	TM3SS1		==	TM3CR1.5
   377 00000 0542 C        	TM3SS1		==	TM3CR1.5
   378       2011 C        	TM3FF		==	TM3CR1.3
   378 00000 0342 C        	TM3FF		==	TM3CR1.3
   379       2011 C        	TM3MOS		==	TM3CR1.2
   379 00000 0242 C        	TM3MOS		==	TM3CR1.2
   380       2011 C        	TM3IS1		==	TM3CR1.1
   380 00000 0142 C        	TM3IS1		==	TM3CR1.1
   381       2011 C        	TM3IS0		==	TM3CR1.0
   381 00000 0042 C        	TM3IS0		==	TM3CR1.0
   382            C        
   383            C        ; TM3CR2:
   384       2012 C        TM3CR2	==    0x12:rpage 2
   384 00000 0012 C        TM3CR2	==    0x12:rpage 2
   385            C        
   386            C        ; TM3DBH:
   387       2013 C        TM3DBH	==    0x13:rpage 2
   387 00000 0012 C        TM3DBH	==    0x13:rpage 2
   388            C        
   389            C        ; TM3DBL:
   390       2014 C        TM3DBL	==    0x14:rpage 2
   390 00000 0012 C        TM3DBL	==    0x14:rpage 2
   391            C        
   392            C        ; TM3DAH:
   393       2015 C        TM3DAH	==    0x15:rpage 2
   393 00000 0012 C        TM3DAH	==    0x15:rpage 2
   394            C        
   395            C        ; TM3DAL:
   396       2016 C        TM3DAL	==    0x16:rpage 2
   396 00000 0012 C        TM3DAL	==    0x16:rpage 2
   397            C        
   398            C        ; TM4CR1:
   399       2017 C        TM4CR1	==    0x17:rpage 2
   399 00000 0012 C        TM4CR1	==    0x17:rpage 2
   400       2017 C        	TM4S		==	TM4CR1.7
   400 00000 0742 C        	TM4S		==	TM4CR1.7
   401       2017 C        	TM4RC		==	TM4CR1.6
   401 00000 0642 C        	TM4RC		==	TM4CR1.6
   402       2017 C        	TM4SS1		==	TM4CR1.5
   402 00000 0542 C        	TM4SS1		==	TM4CR1.5
   403       2017 C        	TM4FF		==	TM4CR1.3
   403 00000 0342 C        	TM4FF		==	TM4CR1.3
   404       2017 C        	TM4MOS		==	TM4CR1.2
   404 00000 0242 C        	TM4MOS		==	TM4CR1.2
   405       2017 C        	TM4IS1		==	TM4CR1.1
   405 00000 0142 C        	TM4IS1		==	TM4CR1.1
   406       2017 C        	TM4IS0		==	TM4CR1.0
   406 00000 0042 C        	TM4IS0		==	TM4CR1.0
   407            C        
   408            C        ; TM4CR2:
   409       2018 C        TM4CR2	==    0x18:rpage 2
   409 00000 0012 C        TM4CR2	==    0x18:rpage 2
   410            C        
   411            C        ; TM4DBH:
   412       2019 C        TM4DBH	==    0x19:rpage 2
   412 00000 0012 C        TM4DBH	==    0x19:rpage 2
   413            C        
   414            C        ; TM4DBL:
   415       201A C        TM4DBL	==    0x1A:rpage 2
   415 00000 0012 C        TM4DBL	==    0x1A:rpage 2
   416            C        
   417            C        ; TM4DAH:
   418       201B C        TM4DAH	==    0x1B:rpage 2
   418 00000 0012 C        TM4DAH	==    0x1B:rpage 2
   419            C        
   420            C        ; TM4DAL:
   421       201C C        TM4DAL	==    0x1C:rpage 2
   421 00000 0012 C        TM4DAL	==    0x1C:rpage 2
   422            C        
   423            C        ; EI01NCR:
   424       201D C        EI01NCR	==    0x1D:rpage 2
   424 00000 0012 C        EI01NCR	==    0x1D:rpage 2
   425       201D C        	EI1NRE		==	EI01NCR.7
   425 00000 0742 C        	EI1NRE		==	EI01NCR.7
   426       201D C        	EI1NR1		==	EI01NCR.5
   426 00000 0542 C        	EI1NR1		==	EI01NCR.5
   427       201D C        	EI1NR0		==	EI01NCR.4
   427 00000 0442 C        	EI1NR0		==	EI01NCR.4
   428       201D C        	EI0NRE		==	EI01NCR.3
   428 00000 0342 C        	EI0NRE		==	EI01NCR.3
   429       201D C        	EI0NR1		==	EI01NCR.1
   429 00000 0142 C        	EI0NR1		==	EI01NCR.1
   430       201D C        	EI0NR0		==	EI01NCR.0
   430 00000 0042 C        	EI0NR0		==	EI01NCR.0
   431            C        
   432            C        ; CMP1CR:
   433       201E C        CMP1CR	==    0x1E:rpage 2
   433 00000 0012 C        CMP1CR	==    0x1E:rpage 2
   434       201E C        	C1PRS1		==	CMP1CR.7
   434 00000 0742 C        	C1PRS1		==	CMP1CR.7
   435       201E C        	C1PRS0		==	CMP1CR.6
   435 00000 0642 C        	C1PRS0		==	CMP1CR.6
   436       201E C        	C1NRS1		==	CMP1CR.5
   436 00000 0542 C        	C1NRS1		==	CMP1CR.5
   437       201E C        	C1NRS0		==	CMP1CR.4
   437 00000 0442 C        	C1NRS0		==	CMP1CR.4
   438       201E C        	CMP1EN		==	CMP1CR.2
   438 00000 0242 C        	CMP1EN		==	CMP1CR.2
   439       201E C        	CMP1OE		==	CMP1CR.1
   439 00000 0142 C        	CMP1OE		==	CMP1CR.1
   440       201E C        	CMP1OUT		==	CMP1CR.0
   440 00000 0042 C        	CMP1OUT		==	CMP1CR.0
   441            C        
   442            C        ; CMP2CR:
   443       201F C        CMP2CR	==    0x1F:rpage 2
   443 00000 0012 C        CMP2CR	==    0x1F:rpage 2
   444       201F C        	C2PRS1		==	CMP2CR.7
   444 00000 0742 C        	C2PRS1		==	CMP2CR.7
   445       201F C        	C2PRS0		==	CMP2CR.6
   445 00000 0642 C        	C2PRS0		==	CMP2CR.6
   446       201F C        	C2NRS1		==	CMP2CR.5
   446 00000 0542 C        	C2NRS1		==	CMP2CR.5
   447       201F C        	C2NRS0		==	CMP2CR.4
   447 00000 0442 C        	C2NRS0		==	CMP2CR.4
   448       201F C        	HYSEN2		==	CMP2CR.3
   448 00000 0342 C        	HYSEN2		==	CMP2CR.3
   449       201F C        	CMP2EN		==	CMP2CR.2
   449 00000 0242 C        	CMP2EN		==	CMP2CR.2
   450       201F C        	CMP2OE		==	CMP2CR.1
   450 00000 0142 C        	CMP2OE		==	CMP2CR.1
   451       201F C        	CMP2OUT		==	CMP2CR.0
   451 00000 0042 C        	CMP2OUT		==	CMP2CR.0
   452            C        
   453            C        ;Reserve 0x20~0x21
   454            C        
   455            C        ; CMPESCR:
   456       2022 C        CMPESCR	==    0x22:rpage 2
   456 00000 0012 C        CMPESCR	==    0x22:rpage 2
   457       2022 C        	CMP2ES		==	CMPESCR.1
   457 00000 0142 C        	CMP2ES		==	CMPESCR.1
   458       2022 C        	CMP1ES		==	CMPESCR.0
   458 00000 0042 C        	CMP1ES		==	CMPESCR.0
   459            C        
   460            C        ; CMP12NCR:
   461       2023 C        CMP12NCR==    0x23:rpage 2
   461 00000 0012 C        CMP12NCR==    0x23:rpage 2
   462       2023 C        	CO2NRE		==	CMP12NCR.7
   462 00000 0742 C        	CO2NRE		==	CMP12NCR.7
   463       2023 C        	CO2NR1		==	CMP12NCR.5
   463 00000 0542 C        	CO2NR1		==	CMP12NCR.5
   464       2023 C        	CO2NR0		==	CMP12NCR.4
   464 00000 0442 C        	CO2NR0		==	CMP12NCR.4
   465       2023 C        	CO1NRE		==	CMP12NCR.3
   465 00000 0342 C        	CO1NRE		==	CMP12NCR.3
   466       2023 C        	CO1NR1		==	CMP12NCR.1
   466 00000 0142 C        	CO1NR1		==	CMP12NCR.1
   467       2023 C        	CO1NR0		==	CMP12NCR.0
   467 00000 0042 C        	CO1NR0		==	CMP12NCR.0
   468            C        
   469            C        ;Reserve 0x24
   470            C        
   471            C        ; CMPTCR1:
   472       2025 C        CMPTCR1	==    0x25:rpage 2
   472 00000 0012 C        CMPTCR1	==    0x25:rpage 2
   473       2025 C        	CMPTEN		==	CMPTCR1.7
   473 00000 0742 C        	CMPTEN		==	CMPTCR1.7
   474       2025 C        	VOSFS2		==	CMPTCR1.6
   474 00000 0642 C        	VOSFS2		==	CMPTCR1.6
   475       2025 C        	VOSFS1		==	CMPTCR1.5
   475 00000 0542 C        	VOSFS1		==	CMPTCR1.5
   476       2025 C        	VOSFS0		==	CMPTCR1.4
   476 00000 0442 C        	VOSFS0		==	CMPTCR1.4
   477       2025 C        	TRIMDU2		==	CMPTCR1.1
   477 00000 0142 C        	TRIMDU2		==	CMPTCR1.1
   478       2025 C        	TRIMDU1		==	CMPTCR1.0
   478 00000 0042 C        	TRIMDU1		==	CMPTCR1.0
   479            C        
   480            C        ; CMPTCR2:
   481       2026 C        CMPTCR2	==    0x26:rpage 2
   481 00000 0012 C        CMPTCR2	==    0x26:rpage 2
   482       2026 C        	TRIMOS		==	CMPTCR2.4
   482 00000 0442 C        	TRIMOS		==	CMPTCR2.4
   483       2026 C        	TRIMIS2		==	CMPTCR2.1
   483 00000 0142 C        	TRIMIS2		==	CMPTCR2.1
   484       2026 C        	TRIMIS1		==	CMPTCR2.0
   484 00000 0042 C        	TRIMIS1		==	CMPTCR2.0
   485            C        
   486            C        ; TCMP1H:
   487       2027 C        TCMP1H	==    0x27:rpage 2
   487 00000 0012 C        TCMP1H	==    0x27:rpage 2
   488       2027 C        	TCMP1HS		==	TCMP1H.7
   488 00000 0742 C        	TCMP1HS		==	TCMP1H.7
   489       2027 C        	TCMP1H4		==	TCMP1H.4
   489 00000 0442 C        	TCMP1H4		==	TCMP1H.4
   490       2027 C        	TCMP1H3		==	TCMP1H.3
   490 00000 0342 C        	TCMP1H3		==	TCMP1H.3
   491       2027 C        	TCMP1H2		==	TCMP1H.2
   491 00000 0242 C        	TCMP1H2		==	TCMP1H.2
   492       2027 C        	TCMP1H1		==	TCMP1H.1
   492 00000 0142 C        	TCMP1H1		==	TCMP1H.1
   493       2027 C        	TCMP1H0		==	TCMP1H.0
   493 00000 0042 C        	TCMP1H0		==	TCMP1H.0
   494            C        
   495            C        ; TCMP1L:
   496       2028 C        TCMP1L	==    0x28:rpage 2
   496 00000 0012 C        TCMP1L	==    0x28:rpage 2
   497       2028 C        	TCMP1LS		==	TCMP1L.7
   497 00000 0742 C        	TCMP1LS		==	TCMP1L.7
   498       2028 C        	TCMP1L4		==	TCMP1L.4
   498 00000 0442 C        	TCMP1L4		==	TCMP1L.4
   499       2028 C        	TCMP1L3		==	TCMP1L.3
   499 00000 0342 C        	TCMP1L3		==	TCMP1L.3
   500       2028 C        	TCMP1L2		==	TCMP1L.2
   500 00000 0242 C        	TCMP1L2		==	TCMP1L.2
   501       2028 C        	TCMP1L1		==	TCMP1L.1
   501 00000 0142 C        	TCMP1L1		==	TCMP1L.1
   502       2028 C        	TCMP1L0		==	TCMP1L.0
   502 00000 0042 C        	TCMP1L0		==	TCMP1L.0
   503            C        
   504            C        ;Reserve 0x29~0x2A
   505            C        
   506            C        ; THCMP2H:
   507       202B C        THCMP2H	==    0x2B:rpage 2
   507 00000 0012 C        THCMP2H	==    0x2B:rpage 2
   508       202B C        	THCMP2HS	==	THCMP2H.7
   508 00000 0742 C        	THCMP2HS	==	THCMP2H.7
   509            C        
   510       202B C        	THCMP2H5	==	THCMP2H.5
   510 00000 0542 C        	THCMP2H5	==	THCMP2H.5
   511       202B C        	THCMP2H4	==	THCMP2H.4
   511 00000 0442 C        	THCMP2H4	==	THCMP2H.4
   512       202B C        	THCMP2H3	==	THCMP2H.3
   512 00000 0342 C        	THCMP2H3	==	THCMP2H.3
   513       202B C        	THCMP2H2	==	THCMP2H.2
   513 00000 0242 C        	THCMP2H2	==	THCMP2H.2
   514       202B C        	THCMP2H1	==	THCMP2H.1
   514 00000 0142 C        	THCMP2H1	==	THCMP2H.1
   515       202B C        	THCMP2H0	==	THCMP2H.0
   515 00000 0042 C        	THCMP2H0	==	THCMP2H.0
   516            C        
   517            C        ; TLCMP2H:
   518       202C C        TLCMP2H	==    0x2C:rpage 2
   518 00000 0012 C        TLCMP2H	==    0x2C:rpage 2
   519       202C C        	TLCMP2HS	==	TLCMP2H.7
   519 00000 0742 C        	TLCMP2HS	==	TLCMP2H.7
   520            C        
   521       202C C        	TLCMP2H5	==	TLCMP2H.5
   521 00000 0542 C        	TLCMP2H5	==	TLCMP2H.5
   522       202C C        	TLCMP2H4	==	TLCMP2H.4
   522 00000 0442 C        	TLCMP2H4	==	TLCMP2H.4
   523       202C C        	TLCMP2H3	==	TLCMP2H.3
   523 00000 0342 C        	TLCMP2H3	==	TLCMP2H.3
   524       202C C        	TLCMP2H2	==	TLCMP2H.2
   524 00000 0242 C        	TLCMP2H2	==	TLCMP2H.2
   525       202C C        	TLCMP2H1	==	TLCMP2H.1
   525 00000 0142 C        	TLCMP2H1	==	TLCMP2H.1
   526       202C C        	TLCMP2H0	==	TLCMP2H.0
   526 00000 0042 C        	TLCMP2H0	==	TLCMP2H.0
   527            C        
   528            C        ; THCMP2L:
   529       202D C        THCMP2L	==    0x2D:rpage 2
   529 00000 0012 C        THCMP2L	==    0x2D:rpage 2
   530       202D C        	THCMP2LS	==	THCMP2L.7
   530 00000 0742 C        	THCMP2LS	==	THCMP2L.7
   531            C        
   532       202D C        	THCMP2L5	==	THCMP2L.5
   532 00000 0542 C        	THCMP2L5	==	THCMP2L.5
   533       202D C        	THCMP2L4	==	THCMP2L.4
   533 00000 0442 C        	THCMP2L4	==	THCMP2L.4
   534       202D C        	THCMP2L3	==	THCMP2L.3
   534 00000 0342 C        	THCMP2L3	==	THCMP2L.3
   535       202D C        	THCMP2L2	==	THCMP2L.2
   535 00000 0242 C        	THCMP2L2	==	THCMP2L.2
   536       202D C        	THCMP2L1	==	THCMP2L.1
   536 00000 0142 C        	THCMP2L1	==	THCMP2L.1
   537       202D C        	THCMP2L0	==	THCMP2L.0
   537 00000 0042 C        	THCMP2L0	==	THCMP2L.0
   538            C        
   539            C        ; TLCMP2L:
   540       202E C        TLCMP2L	==    0x2E:rpage 2
   540 00000 0012 C        TLCMP2L	==    0x2E:rpage 2
   541       202E C        	TLCMP2LS	==	TLCMP2L.7
   541 00000 0742 C        	TLCMP2LS	==	TLCMP2L.7
   542            C        
   543       202E C        	TLCMP2L5	==	TLCMP2L.5
   543 00000 0542 C        	TLCMP2L5	==	TLCMP2L.5
   544       202E C        	TLCMP2L4	==	TLCMP2L.4
   544 00000 0442 C        	TLCMP2L4	==	TLCMP2L.4
   545       202E C        	TLCMP2L3	==	TLCMP2L.3
   545 00000 0342 C        	TLCMP2L3	==	TLCMP2L.3
   546       202E C        	TLCMP2L2	==	TLCMP2L.2
   546 00000 0242 C        	TLCMP2L2	==	TLCMP2L.2
   547       202E C        	TLCMP2L1	==	TLCMP2L.1
   547 00000 0142 C        	TLCMP2L1	==	TLCMP2L.1
   548       202E C        	TLCMP2L0	==	TLCMP2L.0
   548 00000 0042 C        	TLCMP2L0	==	TLCMP2L.0
   549            C        
   550            C        ;Reserve 0x2F~0x3B
   551            C        
   552            C        ; COBS4
   553       203C C        COBS4	==    0x3C:rpage 2
   553 00000 0012 C        COBS4	==    0x3C:rpage 2
   554            C        
   555            C        ; COBS5
   556       203D C        COBS5	==    0x3D:rpage 2
   556 00000 0012 C        COBS5	==    0x3D:rpage 2
   557            C        
   558            C        ; COBS6
   559       203E C        COBS6	==    0x3E:rpage 2
   559 00000 0012 C        COBS6	==    0x3E:rpage 2
   560            C        
   561            C        ; COBS7
   562       203F C        COBS7	==    0x3F:rpage 2
   562 00000 0012 C        COBS7	==    0x3F:rpage 2
   563            C        
   564            C        ; MULMOD:
   565       2040 C        MULMOD	==    0x40:rpage 2
   565 00000 0012 C        MULMOD	==    0x40:rpage 2
   566       2040 C        	PROD16		==	MULMOD.4
   566 00000 0442 C        	PROD16		==	MULMOD.4
   567       2040 C        	MACEN		==	MULMOD.3
   567 00000 0342 C        	MACEN		==	MULMOD.3
   568       2040 C        	MACM		==	MULMOD.2
   568 00000 0242 C        	MACM		==	MULMOD.2
   569       2040 C        	SMCAND		==	MULMOD.1
   569 00000 0142 C        	SMCAND		==	MULMOD.1
   570       2040 C        	SMIER		==	MULMOD.0
   570 00000 0042 C        	SMIER		==	MULMOD.0
   571            C        
   572            C        ; PRODH:
   573       2041 C        PRODH	==    0x41:rpage 2
   573 00000 0012 C        PRODH	==    0x41:rpage 2
   574            C        
   575            C        ; PRODL:
   576       2042 C        PRODL	==    0x42:rpage 2
   576 00000 0012 C        PRODL	==    0x42:rpage 2
   577            C        
   578            C        ; SFR7:
   579       2043 C        SFR7	==    0x43:rpage 2
   579 00000 0012 C        SFR7	==    0x43:rpage 2
   580       2043 C        	TM4SF	== SFR7.3
   580 00000 0342 C        	TM4SF	== SFR7.3
   581       2043 C        	TM3SF	== SFR7.2
   581 00000 0242 C        	TM3SF	== SFR7.2
   582       2043 C        	TM2SF	== SFR7.1
   582 00000 0142 C        	TM2SF	== SFR7.1
   583       2043 C        	TM1SF	== SFR7.0
   583 00000 0042 C        	TM1SF	== SFR7.0
   584            C        
   585            C        ;Reserve 0x44
   586            C        
   587            C        ; IMR7:
   588       2045 C        IMR7	==    0x45:rpage 2
   588 00000 0012 C        IMR7	==    0x45:rpage 2
   589       2045 C        	TM4IE	== IMR7.3
   589 00000 0342 C        	TM4IE	== IMR7.3
   590       2045 C        	TM3IE	== IMR7.2
   590 00000 0242 C        	TM3IE	== IMR7.2
   591       2045 C        	TM2IE	== IMR7.1
   591 00000 0142 C        	TM2IE	== IMR7.1
   592       2045 C        	TM1IE	== IMR7.0
   592 00000 0042 C        	TM1IE	== IMR7.0
   593            C        
   594            C        ;Reserve 0x46
   595            C        
   596            C        ; LOCKPR:Lock Page Number Register
   597       2047 C        LOCKPR	==	  0x47:rpage 2
   597 00000 0012 C        LOCKPR	==	  0x47:rpage 2
   598            C        
   599            C        ; LOCKPR:Lock Page Number Register
   600       2048 C        LOCKCR	==	  0x48:rpage 2
   600 00000 0012 C        LOCKCR	==	  0x48:rpage 2
   601       2048 C        	LOCKEN	== LOCKCR.7
   601 00000 0742 C        	LOCKEN	== LOCKCR.7
   602            C        
   603            C        ; ICEMR3:ICE Monitor Register 3
   604       2049 C        ICEMR3	==    0x49:rpage 2
   604 00000 0012 C        ICEMR3	==    0x49:rpage 2
   605            C        
   606            C        ; ICEMR2:ICE Monitor Register 2
   607       204A C        ICEMR2	==    0x4A:rpage 2
   607 00000 0012 C        ICEMR2	==    0x4A:rpage 2
   608            C        
   609            C        ; ICEMR1:ICE Monitor Register 1
   610       204B C        ICEMR1	==    0x4B:rpage 2
   610 00000 0012 C        ICEMR1	==    0x4B:rpage 2
   611            C        
   612            C        ; ICEACK:ICE Monitor ACK egister
   613       204C C        ICEACK	==    0x4C:rpage 2
   613 00000 0012 C        ICEACK	==    0x4C:rpage 2
   614            C        
   615            C        ; ICEBUF:ICE Monitor Buffer Register
   616       204D C        ICEBUF	==    0x4D:rpage 2
   616 00000 0012 C        ICEBUF	==    0x4D:rpage 2
   617            C        
   618            C        
   619            C        ;======================================================
   620            C        ;      BANK 3 Registers                                
   621            C        ;======================================================
   622            C        
   623            C        ; EIOPWMPE0
   624       2005 C        EIOPWMPE0	==    0x05:rpage 3
   624 00000 0013 C        EIOPWMPE0	==    0x05:rpage 3
   625            C        
   626            C        ; EOPWMPE0
   627       2006 C        EOPWMPE0	==    0x06:rpage 3
   627 00000 0013 C        EOPWMPE0	==    0x06:rpage 3
   628            C        
   629            C        ; EIOPHAPE
   630       2007 C        EIOPHAPE	==    0x07:rpage 3
   630 00000 0013 C        EIOPHAPE	==    0x07:rpage 3
   631            C        
   632            C        ;Reserve 0x08
   633            C        
   634            C        ; T5CRH
   635       2009 C        T5CRH		==    0x09:rpage 3
   635 00000 0013 C        T5CRH		==    0x09:rpage 3
   636            C        
   637            C        ; T5CRL
   638       200A C        T5CRL		==    0x0A:rpage 3
   638 00000 0013 C        T5CRL		==    0x0A:rpage 3
   639            C        
   640            C        ; T6CRH
   641       200B C        T6CRH		==    0x0B:rpage 3
   641 00000 0013 C        T6CRH		==    0x0B:rpage 3
   642            C        
   643            C        ; T6CRL
   644       200C C        T6CRL		==    0x0C:rpage 3
   644 00000 0013 C        T6CRL		==    0x0C:rpage 3
   645            C        
   646            C        ; PWMCR1H
   647       200D C        PWMCR1H		==    0x0D:rpage 3
   647 00000 0013 C        PWMCR1H		==    0x0D:rpage 3
   648            C        
   649            C        ; PWMCR1L
   650       200E C        PWMCR1L		==    0x0E:rpage 3
   650 00000 0013 C        PWMCR1L		==    0x0E:rpage 3
   651            C        
   652            C        ; PWMCR2H
   653       200F C        PWMCR2H		==    0x0F:rpage 3
   653 00000 0013 C        PWMCR2H		==    0x0F:rpage 3
   654            C        
   655            C        ; PWMCR2L
   656       2010 C        PWMCR2L		==    0x10:rpage 3
   656 00000 0013 C        PWMCR2L		==    0x10:rpage 3
   657            C        
   658            C        ; T5OPMS
   659       2011 C        T5OPMS		==    0x11:rpage 3
   659 00000 0013 C        T5OPMS		==    0x11:rpage 3
   660            C        
   661            C        ; T6OPMS
   662       2012 C        T6OPMS		==    0x12:rpage 3
   662 00000 0013 C        T6OPMS		==    0x12:rpage 3
   663            C        
   664            C        ; ASPWM
   665       2013 C        ASPWM		==    0x13:rpage 3
   665 00000 0013 C        ASPWM		==    0x13:rpage 3
   666            C        
   667            C        ; LVPWM
   668       2014 C        LVPWM		==    0x14:rpage 3
   668 00000 0013 C        LVPWM		==    0x14:rpage 3
   669            C        
   670            C        ; SLPWM
   671       2015 C        SLPWM		==    0x15:rpage 3
   671 00000 0013 C        SLPWM		==    0x15:rpage 3
   672            C        
   673            C        ; COPH
   674       2016 C        COPH		==    0x16:rpage 3
   674 00000 0013 C        COPH		==    0x16:rpage 3
   675            C        
   676            C        ; COPL
   677       2017 C        COPL		==    0x17:rpage 3
   677 00000 0013 C        COPL		==    0x17:rpage 3
   678            C        
   679            C        ; MCOPH
   680       2018 C        MCOPH		==    0x18:rpage 3
   680 00000 0013 C        MCOPH		==    0x18:rpage 3
   681            C        
   682            C        ; MCOPL
   683       2019 C        MCOP		==    0x19:rpage 3
   683 00000 0013 C        MCOP		==    0x19:rpage 3
   684            C        
   685            C        ; T5DECR
   686       201A C        T5DECR		==    0x1A:rpage 3
   686 00000 0013 C        T5DECR		==    0x1A:rpage 3
   687            C        
   688            C        ; T5DEB
   689       201B C        T5DEB		==    0x1B:rpage 3
   689 00000 0013 C        T5DEB		==    0x1B:rpage 3
   690            C        
   691            C        ; HACRH
   692       201C C        HACRH		==    0x1C:rpage 3
   692 00000 0013 C        HACRH		==    0x1C:rpage 3
   693            C        
   694            C        ; HACRL
   695       201D C        HACRL		==    0x1D:rpage 3
   695 00000 0013 C        HACRL		==    0x1D:rpage 3
   696            C        
   697            C        ; BRKCR1H
   698       201E C        BRKCR1H		==    0x1E:rpage 3
   698 00000 0013 C        BRKCR1H		==    0x1E:rpage 3
   699            C        
   700            C        ; BRKCR1L
   701       201F C        BRKCR1L		==    0x1F:rpage 3
   701 00000 0013 C        BRKCR1L		==    0x1F:rpage 3
   702            C        
   703            C        ; BRKCR2H
   704       2020 C        BRKCR2H		==    0x20:rpage 3
   704 00000 0013 C        BRKCR2H		==    0x20:rpage 3
   705            C        
   706            C        ; BRKCR2L
   707       2021 C        BRKCR2L		==    0x21:rpage 3
   707 00000 0013 C        BRKCR2L		==    0x21:rpage 3
   708            C        
   709            C        ; TRADCR
   710       2022 C        TRADCR		==    0x22:rpage 3
   710 00000 0013 C        TRADCR		==    0x22:rpage 3
   711            C        
   712            C        ; TSF1H
   713       2023 C        TSF1H		==    0x23:rpage 3
   713 00000 0013 C        TSF1H		==    0x23:rpage 3
   714            C        
   715            C        ; TSF1L
   716       2024 C        TSF1L		==    0x24:rpage 3
   716 00000 0013 C        TSF1L		==    0x24:rpage 3
   717            C        
   718            C        ; SETM1H
   719       2025 C        SETM1H		==    0x25:rpage 3
   719 00000 0013 C        SETM1H		==    0x25:rpage 3
   720       2025 C        	IEHC		==	SETM1H.7
   720 00000 0743 C        	IEHC		==	SETM1H.7
   721       2025 C        	MTRS		==	SETM1H.6
   721 00000 0643 C        	MTRS		==	SETM1H.6
   722       2025 C        	COIDS		==	SETM1H.3
   722 00000 0343 C        	COIDS		==	SETM1H.3
   723       2025 C        	BRKFS		==	SETM1H.2
   723 00000 0243 C        	BRKFS		==	SETM1H.2
   724            C        
   725            C        ; SETM1L
   726       2026 C        SETM1L		==    0x26:rpage 3
   726 00000 0013 C        SETM1L		==    0x26:rpage 3
   727       2026 C        	T6MTS		==	SETM1L.3
   727 00000 0343 C        	T6MTS		==	SETM1L.3
   728       2026 C        	T6RS		==	SETM1L.2
   728 00000 0243 C        	T6RS		==	SETM1L.2
   729       2026 C        	T5MTS		==	SETM1L.1
   729 00000 0143 C        	T5MTS		==	SETM1L.1
   730       2026 C        	T5RS		==	SETM1L.0
   730 00000 0043 C        	T5RS		==	SETM1L.0
   731            C        
   732            C        
   733            C        ; RSTM1H
   734       2027 C        RSTM1H		==    0x27:rpage 3
   734 00000 0013 C        RSTM1H		==    0x27:rpage 3
   735       2027 C        	MTRR		==	RSTM1H.6
   735 00000 0643 C        	MTRR		==	RSTM1H.6
   736       2027 C        	COIDR		==	RSTM1H.3
   736 00000 0343 C        	COIDR		==	RSTM1H.3
   737       2027 C        	BRKFR		==	RSTM1H.2
   737 00000 0243 C        	BRKFR		==	RSTM1H.2
   738            C        
   739            C        ; RSTM1L
   740       2028 C        RSTM1L		==    0x28:rpage 3
   740 00000 0013 C        RSTM1L		==    0x28:rpage 3
   741       2028 C        	T6MTR		==	RSTM1L.3
   741 00000 0343 C        	T6MTR		==	RSTM1L.3
   742       2028 C        	T6RR		==	RSTM1L.2
   742 00000 0243 C        	T6RR		==	RSTM1L.2
   743       2028 C        	T5MTR		==	RSTM1L.1
   743 00000 0143 C        	T5MTR		==	RSTM1L.1
   744       2028 C        	T5RR		==	RSTM1L.0
   744 00000 0043 C        	T5RR		==	RSTM1L.0
   745            C        
   746            C        ;Reserve 0x29~0x2A
   747            C        
   748            C        ; T5VALH
   749       202B C        T5VALH		==    0x2B:rpage 3
   749 00000 0013 C        T5VALH		==    0x2B:rpage 3
   750            C        
   751            C        ; T5VALL
   752       202C C        T5VALL		==    0x2C:rpage 3
   752 00000 0013 C        T5VALL		==    0x2C:rpage 3
   753            C        
   754            C        ; T5PDH
   755       202D C        T5PDH		==    0x2D:rpage 3
   755 00000 0013 C        T5PDH		==    0x2D:rpage 3
   756            C        
   757            C        ; T5PDL
   758       202E C        T5PDL		==    0x2E:rpage 3
   758 00000 0013 C        T5PDL		==    0x2E:rpage 3
   759            C        
   760            C        ; T5ACDH
   761       202F C        T5ACDH		==    0x2F:rpage 3
   761 00000 0013 C        T5ACDH		==    0x2F:rpage 3
   762            C        
   763            C        ; T5ACDL
   764       2030 C        T5ACDL		==    0x30:rpage 3
   764 00000 0013 C        T5ACDL		==    0x30:rpage 3
   765            C        
   766            C        ; T5BCDH
   767       2031 C        T5BCDH		==    0x31:rpage 3
   767 00000 0013 C        T5BCDH		==    0x31:rpage 3
   768            C        
   769            C        ; T5BCDL
   770       2032 C        T5BCDL		==    0x32:rpage 3
   770 00000 0013 C        T5BCDL		==    0x32:rpage 3
   771            C        
   772            C        ; T5CCDH
   773       2033 C        T5CCDH		==    0x33:rpage 3
   773 00000 0013 C        T5CCDH		==    0x33:rpage 3
   774            C        
   775            C        ; T5CCDL
   776       2034 C        T5CCDL		==    0x34:rpage 3
   776 00000 0013 C        T5CCDL		==    0x34:rpage 3
   777            C        
   778            C        ; T5ACDMH
   779       2035 C        T5ACDMH		==    0x35:rpage 3
   779 00000 0013 C        T5ACDMH		==    0x35:rpage 3
   780            C        
   781            C        ; T5ACDML
   782       2036 C        T5ACDML		==    0x36:rpage 3
   782 00000 0013 C        T5ACDML		==    0x36:rpage 3
   783            C        
   784            C        ; T5BCDMH
   785       2037 C        T5BCDMH		==    0x37:rpage 3
   785 00000 0013 C        T5BCDMH		==    0x37:rpage 3
   786            C        
   787            C        ; T5BCDML
   788       2038 C        T5BCDML		==    0x38:rpage 3
   788 00000 0013 C        T5BCDML		==    0x38:rpage 3
   789            C        
   790            C        ; T5CCDMH
   791       2039 C        T5CCDMH		==    0x39:rpage 3
   791 00000 0013 C        T5CCDMH		==    0x39:rpage 3
   792            C        
   793            C        ; T5CCDML
   794       203A C        T5CCDML		==    0x3A:rpage 3
   794 00000 0013 C        T5CCDML		==    0x3A:rpage 3
   795            C        
   796            C        ; TRAD1VH
   797       203B C        TRAD1VH		==    0x3B:rpage 3
   797 00000 0013 C        TRAD1VH		==    0x3B:rpage 3
   798            C        
   799            C        ; TRAD1VL
   800       203C C        TRAD1VL		==    0x3C:rpage 3
   800 00000 0013 C        TRAD1VL		==    0x3C:rpage 3
   801            C        
   802            C        ; TRAD2VH
   803       203D C        TRAD2VH		==    0x3D:rpage 3
   803 00000 0013 C        TRAD2VH		==    0x3D:rpage 3
   804            C        
   805            C        ; TRAD2VL
   806       203E C        TRAD2VL		==    0x3E:rpage 3
   806 00000 0013 C        TRAD2VL		==    0x3E:rpage 3
   807            C        
   808            C        ; T6VALH
   809       203F C        T6VALH		==    0x3F:rpage 3
   809 00000 0013 C        T6VALH		==    0x3F:rpage 3
   810            C        
   811            C        ; T6VALL
   812       2040 C        T6VALL		==    0x40:rpage 3
   812 00000 0013 C        T6VALL		==    0x40:rpage 3
   813            C        
   814            C        ; T6PDH
   815       2041 C        T6PDH		==    0x41:rpage 3
   815 00000 0013 C        T6PDH		==    0x41:rpage 3
   816            C        
   817            C        ; T6PDL
   818       2042 C        T6PDL		==    0x42:rpage 3
   818 00000 0013 C        T6PDL		==    0x42:rpage 3
   819            C        
   820            C        ; T6CDH
   821       2043 C        T6CDH		==    0x43:rpage 3
   821 00000 0013 C        T6CDH		==    0x43:rpage 3
   822            C        
   823            C        ; T6CDL
   824       2044 C        T6CDL		==    0x44:rpage 3
   824 00000 0013 C        T6CDL		==    0x44:rpage 3
   825            C        
   826            C        ; T6CDMH
   827       2045 C        T6CDMH		==    0x45:rpage 3
   827 00000 0013 C        T6CDMH		==    0x45:rpage 3
   828            C        
   829            C        ; T6CDML
   830       2046 C        T6CDML		==    0x46:rpage 3
   830 00000 0013 C        T6CDML		==    0x46:rpage 3
   831            C        
   832            C        ;Reserve 0x47~0x4B
   833            C        
   834            C        ; SFR9
   835       204C C        SFR9		==    0x4C:rpage 3
   835 00000 0013 C        SFR9		==    0x4C:rpage 3
   836       204C C        	T5PDMSF		==	SFR9.7
   836 00000 0743 C        	T5PDMSF		==	SFR9.7
   837       204C C        	T5ONEMSF	==	SFR9.6
   837 00000 0643 C        	T5ONEMSF	==	SFR9.6
   838       204C C        	IRT5CSF		==	SFR9.5
   838 00000 0543 C        	IRT5CSF		==	SFR9.5
   839       204C C        	IRT5BSF		==	SFR9.4
   839 00000 0443 C        	IRT5BSF		==	SFR9.4
   840       204C C        	IRT5ASF		==	SFR9.3
   840 00000 0343 C        	IRT5ASF		==	SFR9.3
   841       204C C        	IFT5CSF		==	SFR9.2
   841 00000 0243 C        	IFT5CSF		==	SFR9.2
   842       204C C        	IFT5BSF		==	SFR9.1
   842 00000 0143 C        	IFT5BSF		==	SFR9.1
   843       204C C        	IFT5ASF		==	SFR9.0
   843 00000 0043 C        	IFT5ASF		==	SFR9.0
   844            C        
   845            C        ; SFR10
   846       204D C        SFR10		==    0x4D:rpage 3
   846 00000 0013 C        SFR10		==    0x4D:rpage 3
   847       204D C        	MTRSF		==	SFR10.7
   847 00000 0743 C        	MTRSF		==	SFR10.7
   848       204D C        	BRKSF		==	SFR10.6
   848 00000 0643 C        	BRKSF		==	SFR10.6
   849       204D C        	HAEGSF		==	SFR10.5
   849 00000 0543 C        	HAEGSF		==	SFR10.5
   850       204D C        	HACOSF		==	SFR10.4
   850 00000 0443 C        	HACOSF		==	SFR10.4
   851       204D C        	HAERRSF		==	SFR10.3
   851 00000 0343 C        	HAERRSF		==	SFR10.3
   852       204D C        	T6PDMSF		==	SFR10.2
   852 00000 0243 C        	T6PDMSF		==	SFR10.2
   853       204D C        	IRT6SF		==	SFR10.1
   853 00000 0143 C        	IRT6SF		==	SFR10.1
   854       204D C        	IFT6SF		==	SFR10.0
   854 00000 0043 C        	IFT6SF		==	SFR10.0
   855            C        
   856            C        ; IMR9
   857       204E C        IMR9		==    0x4E:rpage 3
   857 00000 0013 C        IMR9		==    0x4E:rpage 3
   858       204E C        	T5PDMIE		==	IMR9.7
   858 00000 0743 C        	T5PDMIE		==	IMR9.7
   859       204E C        	T5ONEMIE	==	IMR9.6
   859 00000 0643 C        	T5ONEMIE	==	IMR9.6
   860       204E C        	IRT5CIE		==	IMR9.5
   860 00000 0543 C        	IRT5CIE		==	IMR9.5
   861       204E C        	IRT5BIE		==	IMR9.4
   861 00000 0443 C        	IRT5BIE		==	IMR9.4
   862       204E C        	IRT5AIE		==	IMR9.3
   862 00000 0343 C        	IRT5AIE		==	IMR9.3
   863       204E C        	IFT5CIE		==	IMR9.2
   863 00000 0243 C        	IFT5CIE		==	IMR9.2
   864       204E C        	IFT5BIE		==	IMR9.1
   864 00000 0143 C        	IFT5BIE		==	IMR9.1
   865       204E C        	IFT5AIE		==	IMR9.0
   865 00000 0043 C        	IFT5AIE		==	IMR9.0
   866            C        
   867            C        ; IMR10
   868       204F C        IMR10		==    0x4F:rpage 3
   868 00000 0013 C        IMR10		==    0x4F:rpage 3
   869       204F C        	MTRIE		==	IMR10.7
   869 00000 0743 C        	MTRIE		==	IMR10.7
   870       204F C        	BRKIE		==	IMR10.6
   870 00000 0643 C        	BRKIE		==	IMR10.6
   871       204F C        	HAEGIE		==	IMR10.5
   871 00000 0543 C        	HAEGIE		==	IMR10.5
   872       204F C        	HACOIE		==	IMR10.4
   872 00000 0443 C        	HACOIE		==	IMR10.4
   873       204F C        	HAERRIE		==	IMR10.3
   873 00000 0343 C        	HAERRIE		==	IMR10.3
   874       204F C        	T6PDMIE		==	IMR10.2
   874 00000 0243 C        	T6PDMIE		==	IMR10.2
   875       204F C        	IRT6IE		==	IMR10.1
   875 00000 0143 C        	IRT6IE		==	IMR10.1
   876       204F C        	IFT6IE		==	IMR10.0
   876 00000 0043 C        	IFT6IE		==	IMR10.0
   877            C        
   878            C        
   879            C        
    23                     
    24                     ;================ General Purpose Register ===============
    25       0050          	TMP50	== 0x50
    26       0051          	TMP51	== 0x51
    27       0052          	TMP52	== 0x52
    28       0053          	TMP53	== 0x53
    29       0054          	TMP54	== 0x54
    30       0055          	TMP55	== 0x55
    31       0056          	TMP56	== 0x56
    32       0057          	TMP57	== 0x57
    33       0058          	TMP58	== 0x58
    34       0059          	TMP59	== 0x59
    35       005A          	TMP5A	== 0x5A
    36       005B          	TMP5B	== 0x5B
    37       005C          	TMP5C	== 0x5C
    38       005D          	TMP5D	== 0x5D
    39       005E          	TMP5E	== 0x5E
    40       005F          	TMP5F	== 0x5F
    41                     	
    42       005A          	INST	== 0x5A
    43                     
    44       0080          	TMP80	== 0x80
    45       0081          	TMP81	== 0x81
    46       0082          	TMP82	== 0x82
    47       0083          	TMP83	== 0x83
    48       0084          	TMP84	== 0x84
    49       0085          	TMP85	== 0x85
    50       0086          	TMP86	== 0x86
    51       0087          	TMP87	== 0x87
    52       0088          	TMP88	== 0x88
    53       0089          	TMP89	== 0x89
    54       008A          	TMP8A	== 0x8A
    55       008B          	TMP8B	== 0x8B
    56       008C          	TMP8C	== 0x8C
    57       008D          	TMP8D	== 0x8D
    58       008E          	TMP8E	== 0x8E
    59       008F          	TMP8F	== 0x8F
    60                     
    61                     ;================ Interrupt Vector Table =================
    62                     	ORG 	0x0000
    63 00000 5050          	JMP 	MAIN
    64                     	ORG		0x0002
    65 00002 506A          	JMP 	JMP_FAIL	;0x0002
    66 00003 506A          	JMP 	JMP_FAIL	;0x0003
    67 00004 506A          	JMP 	JMP_FAIL	;0x0004
    68 00005 506A          	JMP 	JMP_FAIL	;0x0005
    69 00006 506A          	JMP 	JMP_FAIL	;0x0006
    70 00007 506A          	JMP 	JMP_FAIL	;0x0007
    71 00008 506A          	JMP 	JMP_FAIL	;0x0008
    72 00009 506A          	JMP 	JMP_FAIL	;0x0009
    73 0000A 506A          	JMP 	JMP_FAIL	;0x000A
    74 0000B 506A          	JMP 	JMP_FAIL	;0x000B
    75 0000C 506A          	JMP 	JMP_FAIL	;0x000C
    76 0000D 506A          	JMP 	JMP_FAIL	;0x000D
    77 0000E 506A          	JMP 	JMP_FAIL	;0x000E
    78 0000F 506A          	JMP 	JMP_FAIL	;0x000F
    79 00010 506A          	JMP 	JMP_FAIL	;0x0010
    80 00011 506A          	JMP 	JMP_FAIL	;0x0011
    81 00012 506A          	JMP 	JMP_FAIL	;0x0012
    82 00013 506A          	JMP 	JMP_FAIL	;0x0013
    83 00014 506A          	JMP 	JMP_FAIL	;0x0014
    84 00015 506A          	JMP 	JMP_FAIL	;0x0015
    85 00016 506A          	JMP 	JMP_FAIL	;0x0016
    86 00017 506A          	JMP 	JMP_FAIL	;0x0017
    87 00018 506A          	JMP 	JMP_FAIL	;0x0018
    88 00019 506A          	JMP 	JMP_FAIL	;0x0019
    89 0001A 506A          	JMP 	JMP_FAIL	;0x001A
    90 0001B 506A          	JMP 	JMP_FAIL	;0x001B
    91 0001C 506A          	JMP 	JMP_FAIL	;0x001C
    92 0001D 506A          	JMP 	JMP_FAIL	;0x001D
    93 0001E 506A          	JMP 	JMP_FAIL	;0x001E
    94 0001F 506A          	JMP 	JMP_FAIL	;0x001F
    95 00020 506A          	JMP 	JMP_FAIL	;0x0020
    96 00021 506A          	JMP 	JMP_FAIL	;0x0021
    97 00022 506A          	JMP 	JMP_FAIL	;0x0022
    98 00023 506A          	JMP 	JMP_FAIL	;0x0023
    99 00024 506A          	JMP 	JMP_FAIL	;0x0024
   100 00025 506A          	JMP 	JMP_FAIL	;0x0025
   101 00026 506A          	JMP 	JMP_FAIL	;0x0026
   102 00027 506A          	JMP 	JMP_FAIL	;0x0027
   103 00028 506A          	JMP 	JMP_FAIL	;0x0028
   104 00029 506A          	JMP 	JMP_FAIL	;0x0029
   105 0002A 506A          	JMP 	JMP_FAIL	;0x002A
   106 0002B 506A          	JMP 	JMP_FAIL	;0x002B
   107 0002C 506A          	JMP 	JMP_FAIL	;0x002C
   108 0002D 506A          	JMP 	JMP_FAIL	;0x002D
   109 0002E 506A          	JMP 	JMP_FAIL	;0x002E
   110 0002F 506A          	JMP 	JMP_FAIL	;0x002F
   111 00030 506A          	JMP 	JMP_FAIL	;0x0030
   112 00031 506A          	JMP 	JMP_FAIL	;0x0031
   113 00032 506A          	JMP 	JMP_FAIL	;0x0032
   114 00033 506A          	JMP 	JMP_FAIL	;0x0033
   115 00034 506A          	JMP 	JMP_FAIL	;0x0034
   116 00035 506A          	JMP 	JMP_FAIL	;0x0035
   117 00036 506A          	JMP 	JMP_FAIL	;0x0036
   118 00037 506A          	JMP 	JMP_FAIL	;0x0037
   119 00038 506A          	JMP 	JMP_FAIL	;0x0038
   120 00039 506A          	JMP 	JMP_FAIL	;0x0039
   121 0003A 506A          	JMP 	JMP_FAIL	;0x003A
   122 0003B 506A          	JMP 	JMP_FAIL	;0x003B
   123 0003C 506A          	JMP 	JMP_FAIL	;0x003C
   124 0003D 506A          	JMP 	JMP_FAIL	;0x003D
   125 0003E 506A          	JMP 	JMP_FAIL	;0x003E
   126 0003F 506A          	JMP 	JMP_FAIL	;0x003F
   127 00040 506A          	JMP 	JMP_FAIL	;0x0040
   128 00041 506A          	JMP 	JMP_FAIL	;0x0041
   129 00042 506A          	JMP 	JMP_FAIL	;0x0042
   130 00043 506A          	JMP 	JMP_FAIL	;0x0043
   131 00044 506A          	JMP 	JMP_FAIL	;0x0044
   132 00045 506A          	JMP 	JMP_FAIL	;0x0045
   133 00046 506A          	JMP 	JMP_FAIL	;0x0046
   134 00047 506A          	JMP 	JMP_FAIL	;0x0047
   135 00048 506A          	JMP 	JMP_FAIL	;0x0048
   136 00049 506A          	JMP 	JMP_FAIL	;0x0049
   137 0004A 506A          	JMP 	JMP_FAIL	;0x004A
   138 0004B 506A          	JMP 	JMP_FAIL	;0x004B
   139 0004C 506A          	JMP 	JMP_FAIL	;0x004C
   140 0004D 506A          	JMP 	JMP_FAIL	;0x004D
   141 0004E 506A          	JMP 	JMP_FAIL	;0x004E
   142 0004F 506A          	JMP 	JMP_FAIL	;0x004F
   143                     ;==================== Main Function ======================
   144                     	ORG		0x0050
   145 00050               MAIN:
   146                     	;CALL 	EFT_INIT
   147 00050 407C          	CALL	SYS_INIT
   148 00051 4087          	CALL	GPIO_INIT
   149                     	;CALL	WAKE_INIT
   150                     	;CALL	KEY_DEBOUNCE
   151 00052 40B7          	CALL	RAM_SHA_INIT
   152 00053 40CC          	CALL	RAM_IND_INIT
   153                     	;CALL	TEST_EEPROM (Do not loop forever)
   154                     	;CALL	TEST_FLASH (Do not loop forever)
   155                     
   156                     ;====================== BACK_GROUND_LOOP ================
   157 00054               BACK_GROUND_LOOP:
   158 00054 7A00          	SBANK	0
   159 00055 40EB          	CALL	TEST_INST_ARITHEMATIC	;ADD, SUB, DAA, DEC, DECA, INC, INCA, ADC, SUBB, NEG
   160 00056 4495          	CALL	TEST_INST_LOGIC_I		;AND, OR, COM, COMA, XOR, CLR, CLRA, BTG
   161 00057 45C4          	CALL	TEST_INST_LOGIC_II		;RLC, RLCA, RRC, RRCA, RRA, RR, RLA, RL, XCH
   162 00058 468C          	CALL	TEST_INST_TRANSFER		;MOV, SWAP, SWAPA
   163 00059 46C4          	CALL	TEST_INST_MANIPULATION	;BC, BS, JBC, JBS
   164 0005A 46C5          	CALL	TEST_INST_BRANCH_I		;JC, JNC, JZ, JNZ, DJZ, DJZA, JZ, JZA
   165 0005B 4704          	CALL	TEST_INST_BRANCH_II		;JE R, JGE, JLE, JE K
   166 0005C 4743          	CALL	TEST_INST_BRANCH_III	;CALL, JMP, LCALL, LJMP, RETL
   167 0005D 476A          	CALL	TEST_INST_CONTROL		;ENI, DISI, WDTC, SLEP, NOP, RETI, RET
   168 0005E 4775          	CALL	TEST_SHORT_BRANCH		;SJC, SJZ, SJNC, SJNZ
   169 0005F 47BE          	CALL	TEST_READ_ROM			;TBRD, TBRDA
   170 00060 4F00          	CALL	TEST_RAM_BANK_0_5		;Write(0x55),Read(0x55),Clear(0x00)
   171 00061 4F17          	CALL	TEST_RAM_BANK_0_A		;Write(0xAA),Read(0xAA),Clear(0x00)
   172 00062 4F2E          	CALL	TEST_RAM_BANK_1_3		;Write(0x33),Read(0x33),Clear(0x00)
   173 00063 4F45          	CALL	TEST_RAM_BANK_1_C		;Write(0xCC),Read(0xCC),Clear(0x00)
   174 00064               	JMP_PASS:
   175 00064 0085          	BTG		P5,0
   176 00065 2105          	BC		P5,1
   177 00066 2A05          	BS		P5,2
   178 00067 2305          	BC		P5,3
   179 00068 2C05          	BS		P5,4	
   180 00069 5054          	JMP		BACK_GROUND_LOOP
   181                     
   182                     ;====================== ERROR_LOOP =====================
   183 0006A               JMP_FAIL:
   184 0006A 7A00          	SBANK	0
   185 0006B 2905          	BS		P5,1
   186 0006C 2205          	BC		P5,2
   187 0006D 2B05          	BS		P5,3
   188 0006E 2405          	BC		P5,4
   189 0006F 506A          	JMP		JMP_FAIL
   190 00070               RAM_FAIL:
   191 00070 7A00          	SBANK	0
   192 00071 2905          	BS		P5,1
   193 00072 2205          	BC		P5,2
   194 00073 2B05          	BS		P5,3
   195 00074 2405          	BC		P5,4
   196 00075 5070          	JMP		RAM_FAIL
   197 00076               INS_FAIL:
   198 00076 7A00          	SBANK	0
   199 00077 2905          	BS		P5,1
   200 00078 2205          	BC		P5,2
   201 00079 2B05          	BS		P5,3
   202 0007A 2405          	BC		P5,4	
   203 0007B 5076          	JMP		INS_FAIL
   204                     
   205                     ;================== PEIPHERAL_INITIAL ==================
   206                     	;-------------------------------;
   207 0007C               	SYS_INIT:	
   208 0007C 7A00          		SBANK	0
   209                     		;BS		CPUS	;FSYS=FM
   210 0007D 260E          		BC		IDLE	;SLEEP_MODE
   211 0007E 6000          		MOV		A,@0x00
   212 0007F 0114          		MOV		SFR1,A
   213 00080 0117          		MOV		SFR4,A
   214 00081 0119          		MOV		SFR6,A
   215 00082 7A03          		SBANK	3
   216 00083 6000          		MOV		A,@0x00
   217 00084 014C          		MOV		SFR9,A
   218 00085 014D          		MOV		SFR10,A
   219 00086 0012          		RET
   220                     	;-------------------------------;		
   221 00087               	GPIO_INIT:
   222 00087 7A00          		SBANK	0
   223 00088 0305          		CLR		P5
   224 00089 60E0          		MOV		A,@0xE0
   225 0008A 010B          		MOV		IOCR5,A
   226 0008B 60FF          		MOV		A,@0xFF	;Turn-Off LED (Active-Low)
   227 0008C 0105          		MOV		P5,A
   228 0008D 0012          		RET
   229                     
   230                     	;-------------------------------;
   231 0008E               	WAKE_INIT:
   232 0008E 7A00          		SBANK	0
   233 0008F 3B03          		JBS		P			; PWR ON reset(1)/RST pin reset(0)
   234 00090 5093          		JMP		$+3
   235 00091 2005          		BC		P5,0		; PWR ON reset,Light PWR_LED
   236 00092 0003          		SLEP
   237 00093 3B03          		JBS		P
   238 00094 5097          		JMP		$+3
   239 00095 2005          		BC		P5,0		; PWR ON reset,Light PWR_LED
   240 00096 0003          		SLEP
   241 00097 3B03          		JBS		P
   242 00098 509B          		JMP		$+3
   243 00099 2005          		BC		P5,0		; PWR ON reset,Light PWR_LED
   244 0009A 2005          		BC		P5,0		; PWR ON reset,Light PWR_LED
   245 0009B 0003          		SLEP		
   246 0009C 0012          		RET
   247                     	;-------------------------------;
   248 0009D               	KEY_DEBOUNCE:
   249 0009D 3D05          		JBS		P5,5		; Push, or not
   250 0009E 50A0          		JMP		$+2
   251 0009F 509D          		JMP		$-2
   252 000A0 3D05          		JBS		P5,5
   253 000A1 509D          		JMP		KEY_DEBOUNCE
   254 000A2 3D05          		JBS		P5,5
   255 000A3 509D          		JMP		KEY_DEBOUNCE
   256 000A4 3D05          		JBS		P5,5
   257 000A5 509D          		JMP		KEY_DEBOUNCE
   258 000A6 3D05          		JBS		P5,5
   259 000A7 509D          		JMP		KEY_DEBOUNCE
   260 000A8 3D05          		JBS		P5,5
   261 000A9 509D          		JMP		KEY_DEBOUNCE
   262 000AA 3D05          		JBS		P5,5
   263 000AB 509D          		JMP		KEY_DEBOUNCE
   264 000AC 3D05          		JBS		P5,5
   265 000AD 509D          		JMP		KEY_DEBOUNCE
   266 000AE 3D05          		JBS		P5,5
   267 000AF 509D          		JMP		KEY_DEBOUNCE
   268 000B0 3D05          		JBS		P5,5
   269 000B1 509D          		JMP		KEY_DEBOUNCE
   270 000B2 3D05          		JBS		P5,5
   271 000B3 50B1          		JMP		$-2
   272 000B4 60FF          		MOV		A,@0xFF		; Turn Off all LED
   273 000B5 0105          		MOV		P5,A		
   274 000B6 0012          		RET
   275                     	;-------------------------------;
   276 000B7               	RAM_SHA_INIT:
   277 000B7 6050          		MOV		A,@0x50
   278 000B8 0104          		MOV		RSR,A
   279 000B9 60FF          		MOV		A,@0xFF		;RAM_SHA_LOOP
   280 000BA 0100          		MOV		IAR,A
   281 000BB 1504          		INC		RSR
   282 000BC 6080          		MOV		A,@0x80
   283 000BD 0C04          		XOR		A,RSR
   284 000BE 3A03          		JBS		Z
   285 000BF 50B9          		JMP		$-6
   286                     		
   287 000C0 6050          		MOV		A,@0x50
   288 000C1 0104          		MOV		RSR,A
   289 000C2 60FF          		MOV		A,@0xFF
   290 000C3 0C00          		XOR		A,IAR
   291 000C4 3A03          		JBS		Z
   292 000C5 5070          		JMP		RAM_FAIL
   293 000C6 1504          		INC		RSR
   294 000C7 6080          		MOV		A,@0x80
   295 000C8 0C04          		XOR		A,RSR
   296 000C9 3A03          		JBS		Z
   297 000CA 50C2          		JMP		$-8
   298 000CB 0012          		RET
   299                     	;-------------------------------;		
   300 000CC               	RAM_IND_INIT:
   301 000CC 6080          		MOV		A,@0x80
   302 000CD 0104          		MOV		RSR,A
   303 000CE               		RAM_IND_LOOP_0:
   304 000CE 7A40          		GBANK	0
   305 000CF 60FF          		MOV		A,@0xFF
   306 000D0 0100          		MOV		IAR,A
   307 000D1 1504          		INC		RSR
   308 000D2 6000          		MOV		A,@0x00
   309 000D3 0C04          		XOR		A,RSR
   310 000D4 3A03          		JBS		Z
   311 000D5 50CE          		JMP		RAM_IND_LOOP_0
   312 000D6 6080          		MOV		A,@0x80
   313 000D7 0104          		MOV		RSR,A
   314 000D8               		RAM_IND_LOOP_1:
   315 000D8 7A41          		GBANK	1
   316 000D9 60FF          		MOV		A,@0xFF
   317 000DA 0100          		MOV		IAR,A
   318 000DB 1504          		INC		RSR
   319 000DC 6000          		MOV		A,@0x00
   320 000DD 0C04          		XOR		A,RSR
   321 000DE 3A03          		JBS		Z
   322 000DF 50D8          		JMP		RAM_IND_LOOP_1
   323 000E0 6080          		MOV		A,@0x80
   324 000E1 0104          		MOV		RSR,A
   325 000E2 0012          		RET
   326                     	;-------------------------------;
   327 000E3               	STATUS_CLEAR:
   328 000E3 6000          		MOV		A,@0x00
   329 000E4 0103          		MOV		STATUS,A
   330 000E5 0012          		RET
   331                     	;-------------------------------;
   332 000E6               	INST_XOR_JUDGE:
   333 000E6 3A03          		JBS		Z			; IF(Z=1) BRANCH
   334 000E7 5076          		JMP		INS_FAIL
   335 000E8 3603          		JBC		N			; IF(N=0) BRANCH
   336 000E9 5076          		JMP		INS_FAIL
   337 000EA 0012          		RET
   338                     ;================== Jmp Sub Function ==================
   339 000EB               	TEST_INST_ARITHEMATIC:
   340 000EB               		INST_DAA:			;-------Instruction Test => DAA , C?
   341 000EB 6001          			MOV		A,@0x01
   342 000EC 015A          			MOV		INST,A
   343 000ED 40E3          			CALL	STATUS_CLEAR	;-------DAA(0xAA)=10
   344 000EE 60AA          			MOV		A,@0xAA
   345 000EF 0001          			DAA
   346 000F0 3803          			JBS		C			; Check C = 1?
   347 000F1 5076          			JMP	INS_FAIL
   348 000F2 3103          			JBC		DC			; Check DC = 0?
   349 000F3 5076          			JMP	INS_FAIL
   350 000F4 3203          			JBC		Z			; Check Z = 0?
   351 000F5 5076          			JMP	INS_FAIL
   352 000F6 3503          			JBC		OV			; Check OV = 0?
   353 000F7 5076          			JMP	INS_FAIL
   354 000F8 3603          			JBC		N			; Check N = 0?
   355 000F9 5076          			JMP	INS_FAIL
   356 000FA 6C10          			XOR		A,@0x10		; Check Result ?
   357 000FB 3A03          			JBS		Z			; Check Z = 1?
   358 000FC 5076          			JMP	INS_FAIL
   359 000FD 3603          			JBC		N			; Check N = 0?
   360 000FE 5076          			JMP	INS_FAIL
   361 000FF 40E3          			CALL	STATUS_CLEAR	;-------DAA(0xFF)=65
   362 00100 6080          			MOV		A,@0x80
   363 00101 0150          			MOV		0x50,A		; [0x50] = 0x80
   364 00102 607F          			MOV		A,@0x7F		; 
   365 00103 0E50          			ADD		A,0x50		; A = 0x7F + 0x80 = 0xFF
   366 00104 0001          			DAA
   367 00105 3803          			JBS		C			; Check C = 1?
   368 00106 5076          			JMP	INS_FAIL
   369 00107 3103          			JBC		DC			; Check DC = 0?
   370 00108 5076          			JMP	INS_FAIL
   371 00109 3203          			JBC		Z			; Check Z = 0?
   372 0010A 5076          			JMP	INS_FAIL
   373 0010B 3503          			JBC		OV			; Check OV = 0?
   374 0010C 5076          			JMP	INS_FAIL
   375 0010D 3E03          			JBS		N			; Check N = 1?	; Result is Negative
   376 0010E 5076          			JMP	INS_FAIL
   377 0010F 2203          			BC		Z
   378 00110 2603          			BC		N
   379 00111 6C65          			XOR		A,@0x65		; Check Result ?
   380 00112 3A03          			JBS		Z			; Check Z = 1?
   381 00113 5076          			JMP	INS_FAIL
   382 00114 3603          			JBC		N			; Check N = 0?
   383 00115 5076          			JMP	INS_FAIL
   384 00116 0000          			NOP
   385 00117 6000          			MOV		A,@0x00
   386 00118 0103          			MOV		STATUS,A
   387                     			;-------DAA(0x00)=66
   388 00119 2803          			BS		C
   389 0011A 6080          			MOV		A,@0x80
   390 0011B 0150          			MOV		0x50,A		; [0x50] = 0x80
   391 0011C 607F          			MOV		A,@0x7F		; 
   392 0011D 7E50          			ADC		A,0x50		; A = 0x7F + 0x80
   393 0011E 0001          			DAA
   394 0011F 3803          			JBS		C			; Check C = 1? 	/ By ADC
   395 00120 5076          			JMP	INS_FAIL
   396 00121 3903          			JBS		DC			; Check DC = 1? / By ADC
   397 00122 5076          			JMP	INS_FAIL
   398 00123 3A03          			JBS		Z			; Check Z = 1? 	/ By ADC
   399 00124 5076          			JMP	INS_FAIL
   400 00125 3503          			JBC		OV			; Check OV = 0?
   401 00126 5076          			JMP	INS_FAIL
   402 00127 3603          			JBC		N			; Check N = 0?
   403 00128 5076          			JMP	INS_FAIL
   404 00129 6C66          			XOR		A,@0x66		; Check Result ?
   405 0012A 3A03          			JBS		Z			; Check Z = 1?
   406 0012B 5076          			JMP	INS_FAIL
   407 0012C 3603          			JBC		N			; Check N = 0?
   408 0012D 5076          			JMP	INS_FAIL
   409 0012E 6000          			MOV		A,@0x00
   410 0012F 0103          			MOV		STATUS,A
   411                     			;-------DAA(0x80)=E6
   412 00130 60FF          			MOV		A,@0xFF
   413 00131 0150          			MOV		0x50,A		; [0x50] = 0xFF
   414 00132 607F          			MOV		A,@0x7F		; 
   415 00133 0450          			SUB		A,0x50		; A = 0xFF - 0x7F
   416 00134 0001          			DAA
   417 00135 3803          			JBS		C			; Check C = 1? 	/ By SUB
   418 00136 5076          			JMP	INS_FAIL
   419 00137 3903          			JBS		DC			; Check DC = 1? / By SUB
   420 00138 5076          			JMP	INS_FAIL
   421 00139 3203          			JBC		Z			; Check Z = 0?
   422 0013A 5076          			JMP	INS_FAIL
   423 0013B 3503          			JBC		OV			; Check OV = 0?
   424 0013C 5076          			JMP	INS_FAIL
   425 0013D 3E03          			JBS		N			; Check N = 1?	; Result is Negative
   426 0013E 5076          			JMP	INS_FAIL
   427 0013F 2203          			BC		Z
   428 00140 2603          			BC		N
   429 00141 6CE6          			XOR		A,@0xE6		; Check Result ?
   430 00142 3A03          			JBS		Z			; Check Z = 1?
   431 00143 5076          			JMP	INS_FAIL
   432 00144 3603          			JBC		N			; Check N = 0?
   433 00145 5076          			JMP	INS_FAIL
   434 00146               		INST_CLA:			;-------Instruction Test => CLA
   435 00146 6008          			MOV		A,@0x08
   436 00147 015A          			MOV		INST,A
   437 00148 605A          			MOV		A,@0x5A
   438 00149 6C5A          			XOR		A,@0x5A		; Check Result ?
   439 0014A 3A03          			JBS		Z			; Check Z = 1?
   440 0014B 5076          			JMP	INS_FAIL
   441 0014C 3603          			JBC		N			; Check N = 0?
   442 0014D 5076          			JMP	INS_FAIL
   443 0014E 605A          			MOV		A,@0x5A
   444 0014F 0200          			CLRA
   445 00150 3A03          			JBS		Z			; Check Z = 1?
   446 00151 5076          			JMP	INS_FAIL
   447 00152 2203          			BC		Z
   448 00153 6C00          			XOR		A,@0x00		; Check Result ?
   449 00154 3A03          			JBS		Z			; Check Z = 1?
   450 00155 5076          			JMP	INS_FAIL
   451 00156 3603          			JBC		N			; Check N = 0?
   452 00157 5076          			JMP	INS_FAIL
   453 00158               		INST_CLR:			;-------Instruction Test => CLR
   454 00158 6009          			MOV		A,@0x09
   455 00159 015A          			MOV		INST,A
   456 0015A 60AA          			MOV		A,@0xAA
   457 0015B 0150          			MOV		0x50,A
   458 0015C 1050          			MOV		A,0x50
   459 0015D 6CAA          			XOR		A,@0xAA		; Check Result ?
   460 0015E 3A03          			JBS		Z			; Check Z = 1?
   461 0015F 5076          			JMP	INS_FAIL
   462 00160 3603          			JBC		N			; Check N = 0?
   463 00161 5076          			JMP	INS_FAIL
   464 00162 0350          			CLR		0x50
   465 00163 3A03          			JBS		Z			; Check Z = 1?
   466 00164 5076          			JMP	INS_FAIL
   467 00165 2203          			BC		Z
   468 00166 1050          			MOV		A,0x50
   469 00167 6C00          			XOR		A,@0x00		; Check Result ?
   470 00168 3A03          			JBS		Z			; Check Z = 1?
   471 00169 5076          			JMP	INS_FAIL
   472 0016A 3603          			JBC		N			; Check N = 0?
   473 0016B 5076          			JMP	INS_FAIL
   474 0016C               		INST_SUB_A_R:		;-------Instruction Test => SUB A,R
   475 0016C 600A          			MOV		A,@0x0A
   476 0016D 015A          			MOV		INST,A
   477 0016E 6000          			MOV		A,@0x00
   478 0016F 0103          			MOV		STATUS,A
   479 00170 6002          			MOV		A,@0x02		; SUB(2-1)=1
   480 00171 0150          			MOV		0x50,A		; [0x50] = 0x02
   481 00172 6001          			MOV		A,@0x01
   482 00173 0450          			SUB		A,0x50		; A = [0x50] - A
   483 00174 3803          			JBS		C			; Check C = 1? 	; Resulet is Positive
   484 00175 5076          			JMP	INS_FAIL
   485 00176 3903          			JBS		DC			; Check DC = 1?	; Low-Byte is Positve
   486 00177 5076          			JMP	INS_FAIL
   487 00178 3203          			JBC		Z			; Check Z = 0?
   488 00179 5076          			JMP	INS_FAIL
   489 0017A 3503          			JBC		OV			; Check OV = 0?
   490 0017B 5076          			JMP	INS_FAIL
   491 0017C 3603          			JBC		N			; Check N = 0?
   492 0017D 5076          			JMP	INS_FAIL
   493 0017E 2203          			BC		Z
   494 0017F 6C01          			XOR		A,@0x01		; Check Result ?
   495 00180 3A03          			JBS		Z			; Check Z = 1?
   496 00181 5076          			JMP	INS_FAIL
   497 00182 3603          			JBC		N			; Check N = 0?
   498 00183 5076          			JMP	INS_FAIL
   499 00184 6000          			MOV		A,@0x00
   500 00185 0103          			MOV		STATUS,A
   501 00186 6002          			MOV		A,@0x02		; SUB(2-2)=0
   502 00187 0150          			MOV		0x50,A		; [0x50] = 0x02
   503 00188 6002          			MOV		A,@0x02
   504 00189 0450          			SUB		A,0x50		; A = [0x50] - A
   505 0018A 3803          			JBS		C			; Check C = 1?	; Result is Positive
   506 0018B 5076          			JMP	INS_FAIL
   507 0018C 3903          			JBS		DC			; Check DC = 1?	; Low-Byte is Positve
   508 0018D 5076          			JMP	INS_FAIL
   509 0018E 3A03          			JBS		Z			; Check Z = 1?	; Result is Zero
   510 0018F 5076          			JMP	INS_FAIL
   511 00190 3503          			JBC		OV			; Check OV = 0?
   512 00191 5076          			JMP	INS_FAIL
   513 00192 3603          			JBC		N			; Check N = 0?
   514 00193 5076          			JMP	INS_FAIL
   515 00194 2203          			BC		Z
   516 00195 6C00          			XOR		A,@0x00		; Check Result ?
   517 00196 3A03          			JBS		Z			; Check Z = 1?
   518 00197 5076          			JMP	INS_FAIL
   519 00198 3603          			JBC		N			; Check N = 0?
   520 00199 5076          			JMP	INS_FAIL
   521 0019A 6000          			MOV		A,@0x00
   522 0019B 0103          			MOV		STATUS,A
   523 0019C 60FF          			MOV		A,@0xFF		; SUB(-1-127) = -128(0x80)
   524 0019D 0150          			MOV		0x50,A		; [0x50] = 0xFF
   525 0019E 607F          			MOV		A,@0x7F
   526 0019F 0450          			SUB		A,0x50		; A = [0x50] - A
   527 001A0 3803          			JBS		C			; Check C = 1?
   528 001A1 5076          			JMP	INS_FAIL
   529 001A2 3903          			JBS		DC			; Check DC = 1?
   530 001A3 5076          			JMP	INS_FAIL
   531 001A4 3203          			JBC		Z			; Check Z = 0?
   532 001A5 5076          			JMP	INS_FAIL
   533 001A6 3503          			JBC		OV			; Check OV = 0?
   534 001A7 5076          			JMP	INS_FAIL
   535 001A8 3E03          			JBS		N			; Check N = 1?
   536 001A9 5076          			JMP	INS_FAIL
   537 001AA 2203          			BC		Z
   538 001AB 2603          			BC		N
   539 001AC 6C80          			XOR		A,@0x80		; Check Result ?
   540 001AD 3A03          			JBS		Z			; Check Z = 1?
   541 001AE 5076          			JMP	INS_FAIL
   542 001AF 3603          			JBC		N			; Check N = 0?
   543 001B0 5076          			JMP	INS_FAIL
   544 001B1 6000          			MOV		A,@0x00
   545 001B2 0103          			MOV		STATUS,A
   546 001B3 6080          			MOV		A,@0x80		; SUB(-128-127) = 1(0x01)
   547 001B4 0150          			MOV		0x50,A		; [0x50] = 0x80
   548 001B5 607F          			MOV		A,@0x7F
   549 001B6 0450          			SUB		A,0x50		; A = [0x50] - A
   550 001B7 3803          			JBS		C			; Check C = 1?
   551 001B8 5076          			JMP	INS_FAIL
   552 001B9 3103          			JBC		DC			; Check DC = 0?
   553 001BA 5076          			JMP	INS_FAIL
   554 001BB 3203          			JBC		Z			; Check Z = 0?
   555 001BC 5076          			JMP	INS_FAIL
   556 001BD 3D03          			JBS		OV			; Check OV = 1?
   557 001BE 5076          			JMP	INS_FAIL
   558 001BF 3603          			JBC		N			; Check N = 0?
   559 001C0 5076          			JMP	INS_FAIL
   560 001C1 2203          			BC		Z
   561 001C2 2603          			BC		N
   562 001C3 6C01          			XOR		A,@0x01		; Check Result ?
   563 001C4 3A03          			JBS		Z			; Check Z = 1?
   564 001C5 5076          			JMP	INS_FAIL
   565 001C6 3603          			JBC		N			; Check N = 0?
   566 001C7 5076          			JMP	INS_FAIL
   567 001C8 6000          			MOV		A,@0x00
   568 001C9 0103          			MOV		STATUS,A
   569 001CA 6001          			MOV		A,@0x01		; SUB(1-3) = -2(0xFE)
   570 001CB 0150          			MOV		0x50,A		; [0x50] = 0x01
   571 001CC 6003          			MOV		A,@0x03
   572 001CD 0450          			SUB		A,0x50		; A = [0x50] - A
   573 001CE 3003          			JBC		C			; Check C = 0?
   574 001CF 5076          			JMP	INS_FAIL
   575 001D0 3103          			JBC		DC			; Check DC = 0?
   576 001D1 5076          			JMP	INS_FAIL
   577 001D2 3203          			JBC		Z			; Check Z = 0?
   578 001D3 5076          			JMP	INS_FAIL
   579 001D4 3503          			JBC		OV			; Check OV = 0?
   580 001D5 5076          			JMP	INS_FAIL
   581 001D6 3E03          			JBS		N			; Check N = 1?
   582 001D7 5076          			JMP	INS_FAIL
   583 001D8 2203          			BC		Z
   584 001D9 2603          			BC		N
   585 001DA 6CFE          			XOR		A,@0xFE		; Check Result ?
   586 001DB 3A03          			JBS		Z			; Check Z = 1?
   587 001DC 5076          			JMP	INS_FAIL
   588 001DD 3603          			JBC		N			; Check N = 0?
   589 001DE 5076          			JMP	INS_FAIL
   590 001DF               		INST_SUB_R_A:		;-------Instruction Test => SUB R,A
   591 001DF 600B          			MOV		A,@0x0B
   592 001E0 015A          			MOV		INST,A
   593 001E1 6000          			MOV		A,@0x00
   594 001E2 0103          			MOV		STATUS,A
   595 001E3 6002          			MOV		A,@0x02
   596 001E4 0150          			MOV		0x50,A		; [0x50] = 0x02
   597 001E5 6001          			MOV		A,@0x01
   598 001E6 0550          			SUB		0x50,A		; [0x50] = [0x50] - 0x01
   599 001E7 1003          			MOV		A,STATUS
   600 001E8 6C1B          			XOR		A,@0x1B		; for non reset
   601                     			;;XOR		A,@0x13
   602 001E9 40E6          			CALL	INST_XOR_JUDGE
   603 001EA 2203          			BC		Z
   604 001EB 2603          			BC		N
   605 001EC 1050          			MOV		A,0x50
   606 001ED 6C01          			XOR		A,@0x01		; Check Result ?
   607 001EE 40E6          			CALL	INST_XOR_JUDGE
   608 001EF 6000          			MOV		A,@0x00
   609 001F0 0103          			MOV		STATUS,A
   610 001F1 6002          			MOV		A,@0x02
   611 001F2 0150          			MOV		0x50,A		; [0x50] = 0x02
   612 001F3 6002          			MOV		A,@0x02
   613 001F4 0550          			SUB		0x50,A		; [0x50] = [0x50] - 0x02
   614 001F5 1003          			MOV		A,STATUS
   615 001F6 6C1F          			XOR		A,@0x1F		; for nono reset
   616                     			;;XOR		A,@0x17
   617 001F7 40E6          			CALL	INST_XOR_JUDGE
   618 001F8 2203          			BC		Z
   619 001F9 2603          			BC		N
   620 001FA 1050          			MOV		A,0x50
   621 001FB 6C00          			XOR		A,@0x00		; Check Result ?
   622 001FC 3A03          			JBS		Z			; Check Z = 1?
   623 001FD 5076          			JMP	INS_FAIL
   624 001FE 3603          			JBC		N			; Check N = 0?
   625 001FF 5076          			JMP	INS_FAIL
   626 00200 6000          			MOV		A,@0x00
   627 00201 0103          			MOV		STATUS,A
   628 00202 6080          			MOV		A,@0x80
   629 00203 0150          			MOV		0x50,A		; [0x50] = 0x80
   630 00204 6001          			MOV		A,@0x01
   631 00205 0550          			SUB		0x50,A		; [0x50] = [0x50] - 0x01
   632 00206 1003          			MOV		A,STATUS
   633 00207 6C39          			XOR		A,@0x39	;; for non reset
   634                     			;;XOR		A,@0x31
   635 00208 40E6          			CALL	INST_XOR_JUDGE
   636 00209 2203          			BC		Z
   637 0020A 2603          			BC		N
   638 0020B 1050          			MOV		A,0x50
   639 0020C 6C7F          			XOR		A,@0x7F		; Check Result ?
   640 0020D 40E6          			CALL	INST_XOR_JUDGE
   641 0020E               		INST_SUB_A_K:		;-------Instruction Test => SUB A,k
   642 0020E 6030          			MOV		A,@0x30
   643 0020F 015A          			MOV		INST,A
   644 00210 40E3          			CALL	STATUS_CLEAR
   645 00211 60FF          			MOV		A,@0xFF		; 0xFF-0xFF
   646 00212 74FF          			SUB		A,@0xFF		; A = 0xFF - 0xFF
   647 00213 3803          			JBS		C			; Check C = 1?
   648 00214 5076          			JMP	INS_FAIL
   649 00215 3903          			JBS		DC			; Check DC = 1?
   650 00216 5076          			JMP	INS_FAIL
   651 00217 3A03          			JBS		Z			; Check Z = 1?
   652 00218 5076          			JMP	INS_FAIL
   653 00219 3503          			JBC		OV			; Check OV = 0?
   654 0021A 5076          			JMP	INS_FAIL
   655 0021B 3603          			JBC		N			; Check N = 0?
   656 0021C 5076          			JMP	INS_FAIL
   657 0021D 6C00          			XOR		A,@0x00		; Check Result ?
   658 0021E 40E6          			CALL	INST_XOR_JUDGE
   659 0021F 40E3          			CALL	STATUS_CLEAR
   660 00220 607F          			MOV		A,@0x7F		; 0x00-0x7F
   661 00221 7400          			SUB		A,@0x00		; A = 0x00 - 0x7F
   662 00222 3003          			JBC		C			; Check C = 0?
   663 00223 5076          			JMP	INS_FAIL
   664 00224 3103          			JBC		DC			; Check DC = 0?
   665 00225 5076          			JMP	INS_FAIL
   666 00226 3203          			JBC		Z			; Check Z = 0?
   667 00227 5076          			JMP	INS_FAIL
   668 00228 3503          			JBC		OV			; Check OV = 0?
   669 00229 5076          			JMP	INS_FAIL
   670 0022A 3E03          			JBS		N			; Check N = 1?
   671 0022B 5076          			JMP	INS_FAIL
   672 0022C 6C81          			XOR		A,@0x81		; Check Result ?
   673 0022D 40E6          			CALL	INST_XOR_JUDGE
   674 0022E 40E3          			CALL	STATUS_CLEAR
   675 0022F 6001          			MOV		A,@0x01		; 0x80-0x01
   676 00230 7480          			SUB		A,@0x80		; A = 0x80 - 0x01
   677 00231 3803          			JBS		C			; Check C = 1?
   678 00232 5076          			JMP	INS_FAIL
   679 00233 3103          			JBC		DC			; Check DC = 0?
   680 00234 5076          			JMP	INS_FAIL
   681 00235 3203          			JBC		Z			; Check Z = 0?
   682 00236 5076          			JMP	INS_FAIL
   683 00237 3D03          			JBS		OV			; Check OV = 1?
   684 00238 5076          			JMP	INS_FAIL
   685 00239 3603          			JBC		N			; Check N = 0?
   686 0023A 5076          			JMP	INS_FAIL
   687 0023B 6C7F          			XOR		A,@0x7F		; Check Result ?
   688 0023C 40E6          			CALL	INST_XOR_JUDGE
   689 0023D               		INST_SUBB_A_R:		;-------Instruction Test => SUBB A,R
   690 0023D 6031          			MOV		A,@0x31
   691 0023E 015A          			MOV		INST,A
   692 0023F 40E3          			CALL	STATUS_CLEAR
   693 00240 2003          			BC		C			; B = 1
   694 00241 6000          			MOV		A,@0x00		;0x00-0xF
   695 00242 0150          			MOV		0x50,A		; [0x50] = 0x00
   696 00243 60FF          			MOV		A,@0xFF		; A = 0x01
   697 00244 7850          			SUBB	A,0x50		; A = [0x50] - A - B
   698 00245 3003          			JBC		C			; Check C = 0?
   699 00246 5076          			JMP	INS_FAIL
   700 00247 3103          			JBC		DC			; Check DC = 0?
   701 00248 5076          			JMP	INS_FAIL
   702 00249 3A03          			JBS		Z			; Check Z = 1?
   703 0024A 5076          			JMP	INS_FAIL
   704 0024B 3503          			JBC		OV			; Check OV = 0?
   705 0024C 5076          			JMP	INS_FAIL
   706 0024D 3603          			JBC		N			; Check N = 0?
   707 0024E 5076          			JMP	INS_FAIL
   708 0024F 6C00          			XOR		A,@0x00		; Check Result ?
   709 00250 40E6          			CALL	INST_XOR_JUDGE	
   710 00251 40E3          			CALL	STATUS_CLEAR
   711 00252 2003          			BC		C			; B = 1
   712 00253 6000          			MOV		A,@0x00		; 0x00-0x7F
   713 00254 0150          			MOV		0x50,A		; [0x50] = 0x00
   714 00255 607F          			MOV		A,@0x7F		; A = 0x01
   715 00256 7850          			SUBB	A,0x50		; A = [0x50] - A - B
   716 00257 3003          			JBC		C			; Check C = 0?
   717 00258 5076          			JMP	INS_FAIL
   718 00259 3103          			JBC		DC			; Check DC = 0?
   719 0025A 5076          			JMP	INS_FAIL
   720 0025B 3203          			JBC		Z			; Check Z = 0?
   721 0025C 5076          			JMP	INS_FAIL
   722 0025D 3503          			JBC		OV			; Check OV = 0?
   723 0025E 5076          			JMP	INS_FAIL
   724 0025F 3E03          			JBS		N			; Check N = 1?
   725 00260 5076          			JMP	INS_FAIL
   726 00261 6C80          			XOR		A,@0x80		; Check Result ?
   727 00262 40E6          			CALL	INST_XOR_JUDGE
   728 00263 40E3          			CALL	STATUS_CLEAR
   729 00264 2003          			BC		C			; B = 1
   730 00265 6080          			MOV		A,@0x80		; 0x80-0x01
   731 00266 0150          			MOV		0x50,A		; [0x50] = 0x80
   732 00267 6001          			MOV		A,@0x01		; A = 0x01
   733 00268 7850          			SUBB	A,0x50		; A = [0x50] - A - B
   734 00269 3803          			JBS		C			; Check C = 1?
   735 0026A 5076          			JMP	INS_FAIL
   736 0026B 3103          			JBC		DC			; Check DC = 0?
   737 0026C 5076          			JMP	INS_FAIL
   738 0026D 3203          			JBC		Z			; Check Z = 0?
   739 0026E 5076          			JMP	INS_FAIL
   740 0026F 3D03          			JBS		OV			; Check OV = 1?
   741 00270 5076          			JMP	INS_FAIL
   742 00271 3603          			JBC		N			; Check N = 0?
   743 00272 5076          			JMP	INS_FAIL
   744 00273 6C7E          			XOR		A,@0x7E		; Check Result ?
   745 00274 40E6          			CALL	INST_XOR_JUDGE
   746 00275               		INST_SUBB_R_A:			;-------Instruction Test => SUBB R,A
   747 00275 6032          			MOV		A,@0x32
   748 00276 015A          			MOV		INST,A
   749 00277 40E3          			CALL	STATUS_CLEAR
   750 00278 2003          			BC		C			; B = 1
   751 00279 6000          			MOV		A,@0x00		; 0x00-0xFF
   752 0027A 0150          			MOV		0x50,A		; [0x50] = 0x00
   753 0027B 60FF          			MOV		A,@0xFF
   754 0027C 7950          			SUBB	0x50,A		; [0x50] = 0x00 - 0xFF - B
   755 0027D 1003          			MOV		A,STATUS
   756 0027E 6C1C          			XOR		A,@0x1C		; Check Status ?
   757                     			;;XOR		A,@0x14		; Check Status ?
   758 0027F 40E6          			CALL	INST_XOR_JUDGE
   759 00280 1050          			MOV		A,0x50
   760 00281 6C00          			XOR		A,@0x00		; Check Result ?
   761 00282 40E6          			CALL	INST_XOR_JUDGE
   762 00283 40E3          			CALL	STATUS_CLEAR
   763 00284 2003          			BC		C			; B = 1
   764 00285 6000          			MOV		A,@0x00		; 0x00-0x7F
   765 00286 0150          			MOV		0x50,A		; [0x50] = 0x00
   766 00287 607F          			MOV		A,@0x7F
   767 00288 7950          			SUBB	0x50,A		; [0x50] = 0x00 - 0x7F - B
   768 00289 1003          			MOV		A,STATUS
   769 0028A 6C58          			XOR		A,@0x58		; Check Status ?
   770                     			;;XOR		A,@0x50		; Check Status ?
   771 0028B 40E6          			CALL	INST_XOR_JUDGE
   772 0028C 1050          			MOV		A,0x50
   773 0028D 6C80          			XOR		A,@0x80		; Check Result ?
   774 0028E 40E6          			CALL	INST_XOR_JUDGE
   775 0028F 40E3          			CALL	STATUS_CLEAR
   776 00290 2003          			BC		C			; B = 1
   777 00291 6080          			MOV		A,@0x80		; ,0x80-0x01
   778 00292 0150          			MOV		0x50,A		; [0x50] = 0x80
   779 00293 6001          			MOV		A,@0x01
   780 00294 7950          			SUBB	0x50,A		; [0x50] = 0x80 - 0x01 - B
   781 00295 1003          			MOV		A,STATUS
   782 00296 6C39          			XOR		A,@0x39		; Check Status ?
   783                     			;;XOR		A,@0x31		; Check Status ?
   784 00297 40E6          			CALL	INST_XOR_JUDGE
   785 00298 1050          			MOV		A,0x50
   786 00299 6C7E          			XOR		A,@0x7E		; Check Result ?
   787 0029A 40E6          			CALL	INST_XOR_JUDGE
   788                     
   789 0029B               		INST_DECA:			;-------Instruction Test => DECA R
   790 0029B 600C          			MOV		A,@0x0C
   791 0029C 015A          			MOV		INST,A
   792 0029D 6000          			MOV		A,@0x00
   793 0029E 0103          			MOV		STATUS,A
   794 0029F 6020          			MOV		A,@0x20		; 0x20-1
   795 002A0 0150          			MOV		0x50,A		; [0x50] = 0x20
   796 002A1 0650          			DECA	0x50		; A = [0x50] - 1
   797 002A2 3803          			JBS		C			; Check C = 1?	; Result is Positive
   798 002A3 5076          			JMP	INS_FAIL
   799 002A4 3103          			JBC		DC			; Check DC = 0?
   800 002A5 5076          			JMP	INS_FAIL
   801 002A6 3203          			JBC		Z			; Check Z = 0?
   802 002A7 5076          			JMP	INS_FAIL
   803 002A8 3503          			JBC		OV			; Check OV = 0?
   804 002A9 5076          			JMP	INS_FAIL
   805 002AA 3603          			JBC		N			; Check N = 0?
   806 002AB 5076          			JMP	INS_FAIL
   807 002AC 6C1F          			XOR		A,@0x1F		; Check Result ?
   808 002AD 3A03          			JBS		Z			; Check Z = 1?
   809 002AE 5076          			JMP	INS_FAIL
   810 002AF 3603          			JBC		N			; Check N = 0?
   811 002B0 5076          			JMP	INS_FAIL
   812 002B1 6000          			MOV		A,@0x00
   813 002B2 0103          			MOV		STATUS,A
   814 002B3 6001          			MOV		A,@0x01		; 0x01-1
   815 002B4 0150          			MOV		0x50,A		; [0x50] = 0x01
   816 002B5 0650          			DECA	0x50		; A = [0x50] - 1
   817 002B6 3803          			JBS		C			; Check C = 1?	; Result is Positive
   818 002B7 5076          			JMP	INS_FAIL
   819 002B8 3903          			JBS		DC			; Check DC = 1?
   820 002B9 5076          			JMP	INS_FAIL
   821 002BA 3A03          			JBS		Z			; Check Z = 1?
   822 002BB 5076          			JMP	INS_FAIL
   823 002BC 3503          			JBC		OV			; Check OV = 0?
   824 002BD 5076          			JMP	INS_FAIL
   825 002BE 3603          			JBC		N			; Check N = 0?
   826 002BF 5076          			JMP	INS_FAIL
   827 002C0 2203          			BC		Z
   828 002C1 6C00          			XOR		A,@0x00		; Check Result ?
   829 002C2 3A03          			JBS		Z			; Check Z = 1?
   830 002C3 5076          			JMP	INS_FAIL
   831 002C4 3603          			JBC		N			; Check N = 0?
   832 002C5 5076          			JMP	INS_FAIL
   833 002C6 6000          			MOV		A,@0x00
   834 002C7 0103          			MOV		STATUS,A
   835 002C8 6000          			MOV		A,@0x00		; 0x00-1
   836 002C9 0150          			MOV		0x50,A		; [0x50] = 0x00
   837 002CA 0650          			DECA	0x50		; A = [0x50] - 1
   838 002CB 3003          			JBC		C			; Check C = 0?
   839 002CC 5076          			JMP	INS_FAIL
   840 002CD 3103          			JBC		DC			; Check DC = 0?
   841 002CE 5076          			JMP	INS_FAIL
   842 002CF 3203          			JBC		Z			; Check Z = 0?
   843 002D0 5076          			JMP	INS_FAIL
   844 002D1 3503          			JBC		OV			; Check OV = 0?
   845 002D2 5076          			JMP	INS_FAIL
   846 002D3 3E03          			JBS		N			; Check N = 1?
   847 002D4 5076          			JMP	INS_FAIL
   848 002D5 2203          			BC		Z
   849 002D6 2603          			BC		N
   850 002D7 6CFF          			XOR		A,@0xFF		; Check Result ?
   851 002D8 3A03          			JBS		Z			; Check Z = 1?
   852 002D9 5076          			JMP	INS_FAIL
   853 002DA 3603          			JBC		N			; Check N = 0?
   854 002DB 5076          			JMP	INS_FAIL
   855 002DC 6000          			MOV		A,@0x00
   856 002DD 0103          			MOV		STATUS,A
   857 002DE 6080          			MOV		A,@0x80		; 0x80-1
   858 002DF 0150          			MOV		0x50,A		; [0x50] = 0x80
   859 002E0 0650          			DECA	0x50		; A = [0x50] - 1
   860 002E1 3803          			JBS		C			; Check C = 1?
   861 002E2 5076          			JMP	INS_FAIL
   862 002E3 3103          			JBC		DC			; Check DC = 0?
   863 002E4 5076          			JMP	INS_FAIL
   864 002E5 3203          			JBC		Z			; Check Z = 0?
   865 002E6 5076          			JMP	INS_FAIL
   866 002E7 3D03          			JBS		OV			; Check OV = 1?
   867 002E8 5076          			JMP	INS_FAIL
   868 002E9 3603          			JBC		N			; Check N = 0?
   869 002EA 5076          			JMP	INS_FAIL
   870 002EB 2203          			BC		Z
   871 002EC 2603          			BC		N
   872 002ED 6C7F          			XOR		A,@0x7F		; Check Result ?
   873 002EE 3A03          			JBS		Z			; Check Z = 1?
   874 002EF 5076          			JMP	INS_FAIL
   875 002F0 3603          			JBC		N			; Check N = 0?
   876 002F1 5076          			JMP	INS_FAIL
   877                     
   878                     
   879                     
   880 002F2               		INST_DEC:			;-------Instruction Test => DEC R
   881 002F2 600D          			MOV		A,@0x0D
   882 002F3 015A          			MOV		INST,A
   883 002F4 6000          			MOV		A,@0x00
   884 002F5 0103          			MOV		STATUS,A
   885 002F6 6020          			MOV		A,@0x20		; 0x20-1
   886 002F7 0150          			MOV		0x50,A		; [0x50] = 0x20
   887 002F8 0750          			DEC		0x50		; [0x50] = [0x50] - 0x01
   888 002F9 1003          			MOV		A,STATUS
   889 002FA 6C19          			XOR		A,@0x19		; Check Status ? for non rest
   890                     			;;XOR		A,@0x11		; Check Status ?
   891 002FB 3A03          			JBS		Z			; Check Z = 1?
   892 002FC 5076          			JMP	INS_FAIL
   893 002FD 3603          			JBC		N			; Check N = 0?
   894 002FE 5076          			JMP	INS_FAIL
   895 002FF 2203          			BC		Z
   896 00300 1050          			MOV		A,0x50
   897 00301 6C1F          			XOR		A,@0x1F		; Check Result ?
   898 00302 3A03          			JBS		Z			; Check Z = 1?
   899 00303 5076          			JMP	INS_FAIL
   900 00304 3603          			JBC		N			; Check N = 0?
   901 00305 5076          			JMP	INS_FAIL
   902 00306 6000          			MOV		A,@0x00
   903 00307 0103          			MOV		STATUS,A
   904 00308 6001          			MOV		A,@0x01		; 0x01-1
   905 00309 0150          			MOV		0x50,A		; [0x50] = 0x01
   906 0030A 0750          			DEC		0x50		; [0x50] = [0x50] - 0x01
   907 0030B 1003          			MOV		A,STATUS
   908 0030C 6C1F          			XOR		A,@0x1F		; Check Status ? for non reset
   909                     			;;XOR		A,@0x17		; Check Status ?
   910 0030D 3A03          			JBS		Z			; Check Z = 1?
   911 0030E 5076          			JMP	INS_FAIL
   912 0030F 3603          			JBC		N			; Check N = 0?
   913 00310 5076          			JMP	INS_FAIL
   914 00311 2203          			BC		Z
   915 00312 1050          			MOV		A,0x50
   916 00313 6C00          			XOR		A,@0x00		; Check Result ?
   917 00314 3A03          			JBS		Z			; Check Z = 1?
   918 00315 5076          			JMP	INS_FAIL
   919 00316 3603          			JBC		N			; Check N = 0?
   920 00317 5076          			JMP	INS_FAIL
   921 00318 6000          			MOV		A,@0x00
   922 00319 0103          			MOV		STATUS,A
   923 0031A 6000          			MOV		A,@0x00		; 0x00-1
   924 0031B 0150          			MOV		0x50,A		; [0x50] = 0x00
   925 0031C 0750          			DEC		0x50		; [0x50] = [0x50] - 0x01
   926 0031D 1003          			MOV		A,STATUS
   927 0031E 6C58          			XOR		A,@0x58		; Check Status ? for non reset
   928                     			;;XOR		A,@0x50		; Check Status ?
   929 0031F 3A03          			JBS		Z			; Check Z = 1?
   930 00320 5076          			JMP	INS_FAIL
   931 00321 3603          			JBC		N			; Check N = 0?
   932 00322 5076          			JMP	INS_FAIL
   933 00323 2203          			BC		Z
   934 00324 1050          			MOV		A,0x50
   935 00325 6CFF          			XOR		A,@0xFF		; Check Result ?
   936 00326 3A03          			JBS		Z			; Check Z = 1?
   937 00327 5076          			JMP	INS_FAIL
   938 00328 3603          			JBC		N			; Check N = 0?
   939 00329 5076          			JMP	INS_FAIL
   940 0032A 6000          			MOV		A,@0x00
   941 0032B 0103          			MOV		STATUS,A
   942 0032C 6080          			MOV		A,@0x80		; 0x80-1
   943 0032D 0150          			MOV		0x50,A		; [0x50] = 0x80
   944 0032E 0750          			DEC		0x50		; [0x50] = [0x50] - 0x01
   945 0032F 1003          			MOV		A,STATUS
   946 00330 6C39          			XOR		A,@0x39		; Check Status ? for non reset
   947                     			;;XOR		A,@0x31		; Check Status ?
   948 00331 3A03          			JBS		Z			; Check Z = 1?
   949 00332 5076          			JMP	INS_FAIL
   950 00333 3603          			JBC		N			; Check N = 0?
   951 00334 5076          			JMP	INS_FAIL
   952 00335 2203          			BC		Z
   953 00336 1050          			MOV		A,0x50
   954 00337 6C7F          			XOR		A,@0x7F		; Check Result ?
   955 00338 3A03          			JBS		Z			; Check Z = 1?
   956 00339 5076          			JMP	INS_FAIL
   957 0033A 3603          			JBC		N			; Check N = 0?
   958 0033B 5076          			JMP	INS_FAIL
   959                     
   960 0033C               		INST_ADD_A_R:		;-------Instruction Test => ADD A,R
   961 0033C 6012          			MOV		A,@0x12
   962 0033D 015A          			MOV		INST,A
   963 0033E 40E3          			CALL	STATUS_CLEAR	; 0x80+0x7F
   964 0033F 6080          			MOV		A,@0x80
   965 00340 0150          			MOV		0x50,A		; [0x50] = 0x80
   966 00341 607F          			MOV		A,@0x7F		; 
   967 00342 0E50          			ADD		A,0x50		; A = 0x7F + 0x80
   968 00343 3003          			JBC		C			; Check C = 0?
   969 00344 5076          			JMP	INS_FAIL
   970 00345 3103          			JBC		DC			; Check DC = 0?
   971 00346 5076          			JMP	INS_FAIL
   972 00347 3203          			JBC		Z			; Check Z = 0?
   973 00348 5076          			JMP	INS_FAIL
   974 00349 3503          			JBC		OV			; Check OV = 0?
   975 0034A 5076          			JMP	INS_FAIL
   976 0034B 3E03          			JBS		N			; Check N = 1?	; Result is Negative
   977 0034C 5076          			JMP	INS_FAIL
   978 0034D 2203          			BC		Z
   979 0034E 2603          			BC		N
   980 0034F 6CFF          			XOR		A,@0xFF		; Check Result ?
   981 00350 3A03          			JBS		Z			; Check Z = 1?
   982 00351 5076          			JMP	INS_FAIL
   983 00352 3603          			JBC		N			; Check N = 0?
   984 00353 5076          			JMP	INS_FAIL
   985 00354 40E3          			CALL	STATUS_CLEAR	; 0xFF+0x01
   986 00355 60FF          			MOV		A,@0xFF
   987 00356 0150          			MOV		0x50,A		; [0x50] = 0xFF
   988 00357 6001          			MOV		A,@0x01		; 
   989 00358 0E50          			ADD		A,0x50		; A = 0x01 + 0xFF
   990 00359 3803          			JBS		C			; Check C = 1?
   991 0035A 5076          			JMP	INS_FAIL
   992 0035B 3903          			JBS		DC			; Check DC = 1?
   993 0035C 5076          			JMP	INS_FAIL
   994 0035D 3A03          			JBS		Z			; Check Z = 1?
   995 0035E 5076          			JMP	INS_FAIL
   996 0035F 3503          			JBC		OV			; Check OV = 0?
   997 00360 5076          			JMP	INS_FAIL
   998 00361 3603          			JBC		N			; Check N = 0?
   999 00362 5076          			JMP	INS_FAIL
  1000 00363 2203          			BC		Z
  1001 00364 2603          			BC		N
  1002 00365 6C00          			XOR		A,@0x00		; Check Result ?
  1003 00366 3A03          			JBS		Z			; Check Z = 1?
  1004 00367 5076          			JMP	INS_FAIL
  1005 00368 3603          			JBC		N			; Check N = 0?
  1006 00369 5076          			JMP	INS_FAIL
  1007 0036A 40E3          			CALL	STATUS_CLEAR	; 0x7F+0x01
  1008 0036B 607F          			MOV		A,@0x7F
  1009 0036C 0150          			MOV		0x50,A		; [0x50] = 0x7F
  1010 0036D 6001          			MOV		A,@0x01		; 
  1011 0036E 0E50          			ADD		A,0x50		; A = 0x01 + 0x7F
  1012 0036F 3003          			JBC		C			; Check C = 0?
  1013 00370 5076          			JMP	INS_FAIL
  1014 00371 3903          			JBS		DC			; Check DC = 1?
  1015 00372 5076          			JMP	INS_FAIL
  1016 00373 3203          			JBC		Z			; Check Z = 0?
  1017 00374 5076          			JMP	INS_FAIL
  1018 00375 3D03          			JBS		OV			; Check OV = 1?
  1019 00376 5076          			JMP	INS_FAIL
  1020 00377 3E03          			JBS		N			; Check N = 1?
  1021 00378 5076          			JMP	INS_FAIL
  1022 00379 2203          			BC		Z
  1023 0037A 2603          			BC		N
  1024 0037B 6C80          			XOR		A,@0x80		; Check Result ?
  1025 0037C 3A03          			JBS		Z			; Check Z = 1?
  1026 0037D 5076          			JMP	INS_FAIL
  1027 0037E 3603          			JBC		N			; Check N = 0?
  1028 0037F 5076          			JMP	INS_FAIL
  1029 00380               		INST_ADD_R_A:		;-------Instruction Test => ADD R,A
  1030 00380 6013          			MOV		A,@0x13
  1031 00381 015A          			MOV		INST,A
  1032 00382 40E3          			CALL	STATUS_CLEAR	; 0x80+0x7F
  1033 00383 6080          			MOV		A,@0x80
  1034 00384 0150          			MOV		0x50,A		; [0x50] = 0x80
  1035 00385 607F          			MOV		A,@0x7F		; A = 0x7F
  1036 00386 0F50          			ADD		0x50,A		; [0x50] = 0x80 + 0x7F
  1037 00387 1003          			MOV		A,STATUS
  1038 00388 6C58          			XOR		A,@0x58		; Check Status ? for non reset
  1039                     			;;XOR		A,@0x50		; Check Status ?
  1040 00389 3A03          			JBS		Z			; Check Z = 1?
  1041 0038A 5076          			JMP	INS_FAIL
  1042 0038B 3603          			JBC		N			; Check N = 0?
  1043 0038C 5076          			JMP	INS_FAIL
  1044 0038D 1050          			MOV		A,0x50
  1045 0038E 6CFF          			XOR		A,@0xFF		; Check Result ?
  1046 0038F 3A03          			JBS		Z			; Check Z = 1?
  1047 00390 5076          			JMP	INS_FAIL
  1048 00391 3603          			JBC		N			; Check N = 0?
  1049 00392 5076          			JMP	INS_FAIL
  1050 00393 40E3          			CALL	STATUS_CLEAR	; 0xFF+0x01
  1051 00394 60FF          			MOV		A,@0xFF
  1052 00395 0150          			MOV		0x50,A		; [0x50] = 0xFF
  1053 00396 6001          			MOV		A,@0x01		; A = 0x01
  1054 00397 0F50          			ADD		0x50,A		; [0x50] = 0xFF + 0x01
  1055 00398 1003          			MOV		A,STATUS
  1056 00399 6C1F          			XOR		A,@0x1F		; Check Status ? for non reset
  1057                     			;;XOR		A,@0x17		; Check Status ?
  1058 0039A 3A03          			JBS		Z			; Check Z = 1?
  1059 0039B 5076          			JMP	INS_FAIL
  1060 0039C 3603          			JBC		N			; Check N = 0?
  1061 0039D 5076          			JMP	INS_FAIL
  1062 0039E 1050          			MOV		A,0x50
  1063 0039F 6C00          			XOR		A,@0x00		; Check Result ?
  1064 003A0 3A03          			JBS		Z			; Check Z = 1?
  1065 003A1 5076          			JMP	INS_FAIL
  1066 003A2 3603          			JBC		N			; Check N = 0?
  1067 003A3 5076          			JMP	INS_FAIL
  1068 003A4 40E3          			CALL	STATUS_CLEAR	;0x7F+0x01
  1069 003A5 607F          			MOV		A,@0x7F
  1070 003A6 0150          			MOV		0x50,A		; [0x50] = 0x7F
  1071 003A7 6001          			MOV		A,@0x01		; A = 0x01
  1072 003A8 0F50          			ADD		0x50,A		; [0x50] = 0x7F + 0x01
  1073 003A9 1003          			MOV		A,STATUS
  1074 003AA 6C7A          			XOR		A,@0x7A		; Check Status ? for non reset
  1075                     			;;XOR		A,@0x72		; Check Status ?
  1076 003AB 3A03          			JBS		Z			; Check Z = 1?
  1077 003AC 5076          			JMP	INS_FAIL
  1078 003AD 3603          			JBC		N			; Check N = 0?
  1079 003AE 5076          			JMP	INS_FAIL
  1080 003AF 1050          			MOV		A,0x50
  1081 003B0 6C80          			XOR		A,@0x80		; Check Result ?
  1082 003B1 3A03          			JBS		Z			; Check Z = 1?
  1083 003B2 5076          			JMP	INS_FAIL
  1084 003B3 3603          			JBC		N			; Check N = 0?
  1085 003B4 5076          			JMP	INS_FAIL
  1086 003B5               		INST_ADD_A_K:		;-------Instruction Test => ADD A,k
  1087 003B5 6034          			MOV		A,@0x34
  1088 003B6 015A          			MOV		INST,A
  1089 003B7 40E3          			CALL	STATUS_CLEAR
  1090 003B8 607F          			MOV		A,@0x7F		;0x7F+0x01
  1091 003B9 7C01          			ADD		A,@0x01		; A = 0x01 + A
  1092 003BA 3003          			JBC		C			; Check C = 0?
  1093 003BB 5076          			JMP	INS_FAIL
  1094 003BC 3903          			JBS		DC			; Check DC = 1?
  1095 003BD 5076          			JMP	INS_FAIL
  1096 003BE 3203          			JBC		Z			; Check Z = 0?
  1097 003BF 5076          			JMP	INS_FAIL
  1098 003C0 3D03          			JBS		OV			; Check OV = 1?
  1099 003C1 5076          			JMP	INS_FAIL
  1100 003C2 3E03          			JBS		N			; Check N = 1?
  1101 003C3 5076          			JMP	INS_FAIL
  1102 003C4 6C80          			XOR		A,@0x80		; Check Result ?
  1103 003C5 40E6          			CALL	INST_XOR_JUDGE
  1104 003C6 40E3          			CALL	STATUS_CLEAR
  1105 003C7 60FF          			MOV		A,@0xFF		;0xFF+0x01
  1106 003C8 7C01          			ADD		A,@0x01		; A = 0x01 + A
  1107 003C9 3803          			JBS		C			; Check C = 1?
  1108 003CA 5076          			JMP	INS_FAIL
  1109 003CB 3903          			JBS		DC			; Check DC = 1?
  1110 003CC 5076          			JMP	INS_FAIL
  1111 003CD 3A03          			JBS		Z			; Check Z = 1?
  1112 003CE 5076          			JMP	INS_FAIL
  1113 003CF 3503          			JBC		OV			; Check OV = 0?
  1114 003D0 5076          			JMP	INS_FAIL
  1115 003D1 3603          			JBC		N			; Check N = 0?
  1116 003D2 5076          			JMP	INS_FAIL
  1117 003D3 6C00          			XOR		A,@0x00		; Check Result ?
  1118 003D4 40E6          			CALL	INST_XOR_JUDGE
  1119 003D5 40E3          			CALL	STATUS_CLEAR
  1120 003D6 607F          			MOV		A,@0x7F		; 0x80+0x7F
  1121 003D7 7C80          			ADD		A,@0x80		; A = 0x80 + A
  1122 003D8 3003          			JBC		C			; Check C = 0?
  1123 003D9 5076          			JMP	INS_FAIL
  1124 003DA 3103          			JBC		DC			; Check DC = 0?
  1125 003DB 5076          			JMP	INS_FAIL
  1126 003DC 3203          			JBC		Z			; Check Z = 0?
  1127 003DD 5076          			JMP	INS_FAIL
  1128 003DE 3503          			JBC		OV			; Check OV = 0?
  1129 003DF 5076          			JMP	INS_FAIL
  1130 003E0 3E03          			JBS		N			; Check N = 1?
  1131 003E1 5076          			JMP	INS_FAIL
  1132 003E2 6CFF          			XOR		A,@0xFF		; Check Result ?
  1133 003E3 40E6          			CALL	INST_XOR_JUDGE
  1134 003E4               		INST_ADC_A_R:		;-------Instruction Test => ADC A,R
  1135 003E4 6036          			MOV		A,@0x36
  1136 003E5 015A          			MOV		INST,A
  1137 003E6 40E3          			CALL	STATUS_CLEAR
  1138 003E7 2803          			BS		C			; 0x7F+0x00
  1139 003E8 607F          			MOV		A,@0x7F		
  1140 003E9 0150          			MOV		0x50,A		; [0x50] = 0x7F
  1141 003EA 6000          			MOV		A,@0x00		; A = 0x00
  1142 003EB 7E50          			ADC		A,0x50		; A = A + [0x50] + C
  1143 003EC 3003          			JBC		C			; Check C = 0?
  1144 003ED 5076          			JMP	INS_FAIL
  1145 003EE 3903          			JBS		DC			; Check DC = 1?
  1146 003EF 5076          			JMP	INS_FAIL
  1147 003F0 3203          			JBC		Z			; Check Z = 0?
  1148 003F1 5076          			JMP	INS_FAIL
  1149 003F2 3D03          			JBS		OV			; Check OV = 1?
  1150 003F3 5076          			JMP	INS_FAIL
  1151 003F4 3E03          			JBS		N			; Check N = 1?
  1152 003F5 5076          			JMP	INS_FAIL
  1153 003F6 6C80          			XOR		A,@0x80		; Check Result ?
  1154 003F7 40E6          			CALL	INST_XOR_JUDGE
  1155 003F8 40E3          			CALL	STATUS_CLEAR
  1156 003F9 2803          			BS		C			; 0x80+0x7F
  1157 003FA 6080          			MOV		A,@0x80
  1158 003FB 0150          			MOV		0x50,A		; [0x50] = 0x80
  1159 003FC 607F          			MOV		A,@0x7F		; A = 0x7F
  1160 003FD 7E50          			ADC		A,0x50		; A = A + [0x50] + C
  1161 003FE 3803          			JBS		C			; Check C = 1?
  1162 003FF 5076          			JMP	INS_FAIL
  1163 00400 3903          			JBS		DC			; Check DC = 1?
  1164 00401 5076          			JMP	INS_FAIL
  1165 00402 3A03          			JBS		Z			; Check Z = 1?
  1166 00403 5076          			JMP	INS_FAIL
  1167 00404 3503          			JBC		OV			; Check OV = 0?
  1168 00405 5076          			JMP	INS_FAIL
  1169 00406 3603          			JBC		N			; Check N = 0?
  1170 00407 5076          			JMP	INS_FAIL
  1171 00408 6C00          			XOR		A,@0x00		; Check Result ?
  1172 00409 40E6          			CALL	INST_XOR_JUDGE
  1173 0040A               		INST_ADC_R_A:		;-------Instruction Test => ADC R,A
  1174 0040A 6037          			MOV		A,@0x37
  1175 0040B 015A          			MOV		INST,A
  1176 0040C 40E3          			CALL	STATUS_CLEAR
  1177 0040D 2803          			BS		C			;0x7F+0x00
  1178 0040E 607F          			MOV		A,@0x7F
  1179 0040F 0150          			MOV		0x50,A		; [0x50] = 0x7F
  1180 00410 6000          			MOV		A,@0x00		; A = 0x00
  1181 00411 2203          			BC		Z
  1182 00412 7F50          			ADC		0x50,A		; TMP1 = A + [0x50] + C
  1183 00413 1003          			MOV		A,STATUS
  1184 00414 6C7A          			XOR		A,@0x7A		; Check Status ?
  1185                     			;;XOR		A,@0x72		; Check Status ?
  1186 00415 40E6          			CALL	INST_XOR_JUDGE
  1187 00416 1050          			MOV		A,0x50
  1188 00417 6C80          			XOR		A,@0x80		; Check Result ?
  1189 00418 40E6          			CALL	INST_XOR_JUDGE
  1190 00419 40E3          			CALL	STATUS_CLEAR
  1191 0041A 2803          			BS		C			;0x80+0x7F
  1192 0041B 6080          			MOV		A,@0x80
  1193 0041C 0150          			MOV		0x50,A		; [0x50] = 0x80
  1194 0041D 607F          			MOV		A,@0x7F		; A = 0x7F
  1195 0041E 2203          			BC		Z
  1196 0041F 7F50          			ADC		0x50,A		; TMP1 = A + [0x50] + C
  1197 00420 1003          			MOV		A,STATUS
  1198 00421 6C1F          			XOR		A,@0x1F		; Check Status ?
  1199                     			;;XOR		A,@0x17		; Check Status ?
  1200 00422 40E6          			CALL	INST_XOR_JUDGE
  1201 00423 1050          			MOV		A,0x50
  1202 00424 6C00          			XOR		A,@0x00		; Check Result ?
  1203 00425 40E6          			CALL	INST_XOR_JUDGE
  1204                     
  1205 00426               		INST_INCA:			;-------Instruction Test => INCA R
  1206 00426 6017          			MOV		A,@0x17
  1207 00427 015A          			MOV		INST,A
  1208 00428 40E3          			CALL	STATUS_CLEAR	; 0x7F+0x01
  1209 00429 607F          			MOV		A,@0x7F
  1210 0042A 0150          			MOV		0x50,A		; [0x50] = 0x7F
  1211 0042B 1450          			INCA	0x50		; A = [0x50] +1		
  1212 0042C 3003          			JBC		C			; Check C = 0?
  1213 0042D 5076          			JMP	INS_FAIL
  1214 0042E 3903          			JBS		DC			; Check DC = 1?
  1215 0042F 5076          			JMP	INS_FAIL
  1216 00430 3203          			JBC		Z			; Check Z = 0?
  1217 00431 5076          			JMP	INS_FAIL
  1218 00432 3D03          			JBS		OV			; Check OV = 1?
  1219 00433 5076          			JMP	INS_FAIL
  1220 00434 3E03          			JBS		N			; Check N = 1?
  1221 00435 5076          			JMP	INS_FAIL
  1222 00436 2203          			BC		Z
  1223 00437 2603          			BC		N
  1224 00438 6C80          			XOR		A,@0x80		; Check Result ?
  1225 00439 3A03          			JBS		Z			; Check Z = 1?
  1226 0043A 5076          			JMP	INS_FAIL
  1227 0043B 3603          			JBC		N			; Check N = 0?
  1228 0043C 5076          			JMP	INS_FAIL
  1229 0043D 40E3          			CALL	STATUS_CLEAR	; 0xFF+0x01
  1230 0043E 60FF          			MOV		A,@0xFF
  1231 0043F 0150          			MOV		0x50,A		; [0x50] = 0xFF
  1232 00440 1450          			INCA	0x50		; A = [0x50] +1		
  1233 00441 3803          			JBS		C			; Check C = 1?
  1234 00442 5076          			JMP	INS_FAIL
  1235 00443 3903          			JBS		DC			; Check DC = 1?
  1236 00444 5076          			JMP	INS_FAIL
  1237 00445 3A03          			JBS		Z			; Check Z = 1?
  1238 00446 5076          			JMP	INS_FAIL
  1239 00447 3503          			JBC		OV			; Check OV = 0?
  1240 00448 5076          			JMP	INS_FAIL
  1241 00449 3603          			JBC		N			; Check N = 0?
  1242 0044A 5076          			JMP	INS_FAIL
  1243 0044B 2203          			BC		Z
  1244 0044C 2603          			BC		N
  1245 0044D 6C00          			XOR		A,@0x00		; Check Result ?
  1246 0044E 3A03          			JBS		Z			; Check Z = 1?
  1247 0044F 5076          			JMP	INS_FAIL
  1248 00450 3603          			JBC		N			; Check N = 0?
  1249 00451 5076          			JMP	INS_FAIL
  1250                     
  1251 00452               		INST_INC:			;-------Instruction Test => INC R
  1252 00452 6018          			MOV		A,@0x18
  1253 00453 015A          			MOV		INST,A
  1254 00454 40E3          			CALL 	STATUS_CLEAR	; 0x7F+0x01
  1255 00455 607F          			MOV		A,@0x7F
  1256 00456 0150          			MOV		0x50,A		; [0x50] = 0x7F
  1257 00457 1550          			INC		0x50		; [0x50] = [0x50] + 0x01
  1258 00458 1003          			MOV		A,STATUS
  1259 00459 6C7A          			XOR		A,@0x7A		; Check Status ?
  1260                     			;;XOR		A,@0x72		; Check Status ?
  1261 0045A 3A03          			JBS		Z			; Check Z = 1?
  1262 0045B 5076          			JMP	INS_FAIL
  1263 0045C 3603          			JBC		N			; Check N = 0?
  1264 0045D 5076          			JMP	INS_FAIL
  1265 0045E 1050          			MOV		A,0x50
  1266 0045F 6C80          			XOR		A,@0x80		; Check Result ?
  1267 00460 3A03          			JBS		Z			; Check Z = 1?
  1268 00461 5076          			JMP	INS_FAIL
  1269 00462 3603          			JBC		N			; Check N = 0?
  1270 00463 5076          			JMP	INS_FAIL
  1271 00464 40E3          			CALL	STATUS_CLEAR	; 0xFF+0x01
  1272 00465 60FF          			MOV		A,@0xFF
  1273 00466 0150          			MOV		0x50,A		; [0x50] = 0x7F
  1274 00467 1550          			INC		0x50		; [0x50] = [0x50] + 0x01
  1275 00468 1003          			MOV		A,STATUS
  1276 00469 6C1F          			XOR		A,@0x1F		; Check Status ?
  1277                     			;;XOR		A,@0x17		; Check Status ?
  1278 0046A 3A03          			JBS		Z			; Check Z = 1?
  1279 0046B 5076          			JMP	INS_FAIL
  1280 0046C 3603          			JBC		N			; Check N = 0?
  1281 0046D 5076          			JMP	INS_FAIL
  1282 0046E 1050          			MOV		A,0x50
  1283 0046F 6C00          			XOR		A,@0x00		; Check Result ?
  1284 00470 3A03          			JBS		Z			; Check Z = 1?
  1285 00471 5076          			JMP	INS_FAIL
  1286 00472 3603          			JBC		N			; Check N = 0?
  1287 00473 5076          			JMP	INS_FAIL
  1288                     
  1289 00474               		INST_NEG_R:			;-------Instruction Test => NEG R
  1290 00474 6035          			MOV		A,@0x35
  1291 00475 015A          			MOV		INST,A
  1292 00476 40E3          			CALL	STATUS_CLEAR
  1293 00477 6000          			MOV		A,@0x00		; 0x00
  1294 00478 0150          			MOV		0x50,A		; [0x50] = 0x00
  1295 00479 7D50          			NEG		0x50
  1296 0047A 1003          			MOV		A,STATUS
  1297 0047B 6C1F          			XOR		A,@0x1F		; Check Status ?
  1298                     			;;XOR		A,@0x17		; Check Status ?
  1299 0047C 40E6          			CALL	INST_XOR_JUDGE
  1300 0047D 1050          			MOV		A,0x50
  1301 0047E 6C00          			XOR		A,@0x00		; Check Result ?
  1302 0047F 40E6          			CALL	INST_XOR_JUDGE
  1303 00480 40E3          			CALL	STATUS_CLEAR
  1304 00481 6001          			MOV		A,@0x01		; 0x01
  1305 00482 0150          			MOV		0x50,A		; [0x50] = 0x01
  1306 00483 7D50          			NEG		0x50
  1307 00484 1003          			MOV		A,STATUS
  1308 00485 6C58          			XOR		A,@0x58		; Check Status ?
  1309                     			;;XOR		A,@0x50		; Check Status ?
  1310 00486 40E6          			CALL	INST_XOR_JUDGE
  1311 00487 1050          			MOV		A,0x50
  1312 00488 6CFF          			XOR		A,@0xFF		; Check Result ?
  1313 00489 467C          			CALL	INST_XCH
  1314 0048A 40E3          			CALL	STATUS_CLEAR
  1315 0048B 6080          			MOV		A,@0x80		; 0x80
  1316 0048C 0150          			MOV		0x50,A		; [0x50] = 0x80
  1317 0048D 7D50          			NEG		0x50
  1318 0048E 1003          			MOV		A,STATUS
  1319 0048F 6C7A          			XOR		A,@0x7A		; Check Status ?
  1320                     			;;XOR		A,@0x72		; Check Status ?
  1321 00490 40E6          			CALL	INST_XOR_JUDGE
  1322 00491 1050          			MOV		A,0x50
  1323 00492 6C80          			XOR		A,@0x80		; Check Result ?
  1324 00493 40E6          			CALL	INST_XOR_JUDGE
  1325                     
  1326 00494 0012          		RET
  1327 00495               	TEST_INST_LOGIC_I:
  1328 00495               		INST_BTG:			;-------Instruction Test => BTG R,b	
  1329 00495 6006          			MOV		A,@0x06
  1330 00496 015A          			MOV		INST,A
  1331 00497 40E3          			CALL	STATUS_CLEAR
  1332 00498 60FF          			MOV		A,@0xFF
  1333 00499 0104          			MOV		RSR,A		; Start Address
  1334 0049A 0084          			BTG		RSR
  1335 0049B 1004          			MOV		A,RSR
  1336 0049C 6CFE          			XOR		A,@0xFE		; Check Result ?
  1337 0049D 40E6          			CALL	INST_XOR_JUDGE
  1338 0049E               		INST_OR_A_R:		;-------Instruction Test => OR A,R
  1339 0049E 600E          			MOV		A,@0x0E
  1340 0049F 015A          			MOV		INST,A
  1341 004A0 6000          			MOV		A,@0x00
  1342 004A1 0103          			MOV		STATUS,A
  1343 004A2 6000          			MOV		A,@0x00
  1344 004A3 0150          			MOV		0x50,A		; [0x50] = 0x00
  1345 004A4 6000          			MOV		A,@0x00
  1346 004A5 2203          			BC		Z
  1347 004A6 0850          			OR		A,0x50		; A = A | [0x50]
  1348 004A7 3003          			JBC		C			; Check C = 0?
  1349 004A8 5076          			JMP	INS_FAIL
  1350 004A9 3103          			JBC		DC			; Check DC = 0?
  1351 004AA 5076          			JMP	INS_FAIL
  1352 004AB 3A03          			JBS		Z			; Check Z = 1?
  1353 004AC 5076          			JMP	INS_FAIL
  1354 004AD 3503          			JBC		OV			; Check OV = 0?
  1355 004AE 5076          			JMP	INS_FAIL
  1356 004AF 3603          			JBC		N			; Check N = 0?
  1357 004B0 5076          			JMP	INS_FAIL
  1358 004B1 2203          			BC		Z
  1359 004B2 6C00          			XOR		A,@0x00		; Check Result ?
  1360 004B3 3A03          			JBS		Z			; Check Z = 1?
  1361 004B4 5076          			JMP	INS_FAIL
  1362 004B5 3603          			JBC		N			; Check N = 0?
  1363 004B6 5076          			JMP	INS_FAIL
  1364 004B7 6000          			MOV		A,@0x00
  1365 004B8 0103          			MOV		STATUS,A
  1366 004B9 6055          			MOV		A,@0x55
  1367 004BA 0150          			MOV		0x50,A		; [0x50] = 0x55
  1368 004BB 60AA          			MOV		A,@0xAA
  1369 004BC 2203          			BC		Z
  1370 004BD 0850          			OR		A,0x50		; A = A | [0x50]
  1371 004BE 3003          			JBC		C			; Check C = 0?
  1372 004BF 5076          			JMP	INS_FAIL
  1373 004C0 3103          			JBC		DC			; Check DC = 0?
  1374 004C1 5076          			JMP	INS_FAIL
  1375 004C2 3203          			JBC		Z			; Check Z = 0?
  1376 004C3 5076          			JMP	INS_FAIL
  1377 004C4 3503          			JBC		OV			; Check OV = 0?
  1378 004C5 5076          			JMP	INS_FAIL
  1379 004C6 3E03          			JBS		N			; Check N = 1?
  1380 004C7 5076          			JMP	INS_FAIL
  1381 004C8 2203          			BC		Z
  1382 004C9 6CFF          			XOR		A,@0xFF		; Check Result ?
  1383 004CA 3A03          			JBS		Z			; Check Z = 1?
  1384 004CB 5076          			JMP	INS_FAIL
  1385 004CC 3603          			JBC		N			; Check N = 0?
  1386 004CD 5076          			JMP	INS_FAIL
  1387                     
  1388 004CE               		INST_OR_R_A:		;-------Instruction Test => OR R,A
  1389 004CE 600F          			MOV		A,@0x0F
  1390 004CF 015A          			MOV		INST,A
  1391 004D0 6000          			MOV		A,@0x00
  1392 004D1 0103          			MOV		STATUS,A
  1393 004D2 6000          			MOV		A,@0x00
  1394 004D3 0150          			MOV		0x50,A		; [0x50] = 0x00
  1395 004D4 6000          			MOV		A,@0x00		; A = 0x00
  1396 004D5 2203          			BC		Z
  1397 004D6 0950          			OR		0x50,A		; [0x50] = A | [0x50]
  1398 004D7 1003          			MOV		A,STATUS
  1399 004D8 6C1C          			XOR		A,@0x1C		; Check Status ? for non reset
  1400                     			;;XOR		A,@0x14		; Check Status ?
  1401 004D9 3A03          			JBS		Z			; Check Z = 1?
  1402 004DA 5076          			JMP	INS_FAIL
  1403 004DB 3603          			JBC		N			; Check N = 0?
  1404 004DC 5076          			JMP	INS_FAIL
  1405 004DD 1050          			MOV		A,0x50		; A = Result[0x50]
  1406 004DE 2203          			BC		Z
  1407 004DF 2603          			BC		N
  1408 004E0 6C00          			XOR		A,@0x00		; Check Result ?
  1409 004E1 3A03          			JBS		Z			; Check Z = 1?
  1410 004E2 5076          			JMP	INS_FAIL
  1411 004E3 3603          			JBC		N			; Check N = 0?
  1412 004E4 5076          			JMP	INS_FAIL
  1413 004E5 6000          			MOV		A,@0x00
  1414 004E6 0103          			MOV		STATUS,A
  1415 004E7 6055          			MOV		A,@0x55
  1416 004E8 0150          			MOV		0x50,A		; [0x50] = 0x55
  1417 004E9 60AA          			MOV		A,@0xAA		; A = 0xAA
  1418 004EA 0950          			OR		0x50,A		; [0x50] = 0xAA | 0x55
  1419 004EB 1003          			MOV		A,STATUS
  1420 004EC 6C58          			XOR		A,@0x58		; Check Status ? for non reset
  1421                     			;;XOR		A,@0x50		; Check Status ?
  1422 004ED 3A03          			JBS		Z			; Check Z = 1?
  1423 004EE 5076          			JMP	INS_FAIL
  1424 004EF 3603          			JBC		N			; Check N = 0?
  1425 004F0 5076          			JMP	INS_FAIL
  1426 004F1 1050          			MOV		A,0x50
  1427 004F2 2203          			BC		Z
  1428 004F3 2603          			BC		N
  1429 004F4 6CFF          			XOR		A,@0xFF		; Check Result ?
  1430 004F5 3A03          			JBS		Z			; Check Z = 1?
  1431 004F6 5076          			JMP	INS_FAIL
  1432 004F7 3603          			JBC		N			; Check N = 0?
  1433 004F8 5076          			JMP	INS_FAIL
  1434                     
  1435 004F9               		INST_AND_A_R:		;-------Instruction Test => AND A,R
  1436 004F9 6010          			MOV		A,@0x10
  1437 004FA 015A          			MOV		INST,A
  1438 004FB 40E3          			CALL	STATUS_CLEAR
  1439 004FC 6055          			MOV		A,@0x55
  1440 004FD 0150          			MOV		0x50,A		; [0x50] = 0x55
  1441 004FE 60AA          			MOV		A,@0xAA
  1442 004FF 0A50          			AND		A,0x50		; A = 0xAA & 0x55
  1443 00500 3003          			JBC		C			; Check C = 0?
  1444 00501 5076          			JMP	INS_FAIL
  1445 00502 3103          			JBC		DC			; Check DC = 0?
  1446 00503 5076          			JMP	INS_FAIL
  1447 00504 3A03          			JBS		Z			; Check Z = 1?
  1448 00505 5076          			JMP	INS_FAIL
  1449 00506 3503          			JBC		OV			; Check OV = 0?
  1450 00507 5076          			JMP	INS_FAIL
  1451 00508 3603          			JBC		N			; Check N = 0?
  1452 00509 5076          			JMP	INS_FAIL
  1453 0050A 6C00          			XOR		A,@0x00		; Check Result ?
  1454 0050B 3A03          			JBS		Z			; Check Z = 1?
  1455 0050C 5076          			JMP	INS_FAIL
  1456 0050D 3603          			JBC		N			; Check N = 0?
  1457 0050E 5076          			JMP	INS_FAIL
  1458 0050F 40E3          			CALL	STATUS_CLEAR
  1459 00510 60F5          			MOV		A,@0xF5
  1460 00511 0150          			MOV		0x50,A		; [0x50] = 0xF5
  1461 00512 60FA          			MOV		A,@0xFA
  1462 00513 0A50          			AND		A,0x50		; A = 0xFA & 0xF5
  1463 00514 3003          			JBC		C			; Check C = 0?
  1464 00515 5076          			JMP	INS_FAIL
  1465 00516 3103          			JBC		DC			; Check DC = 0?
  1466 00517 5076          			JMP	INS_FAIL
  1467 00518 3203          			JBC		Z			; Check Z = 0?
  1468 00519 5076          			JMP	INS_FAIL
  1469 0051A 3503          			JBC		OV			; Check OV = 0?
  1470 0051B 5076          			JMP	INS_FAIL
  1471 0051C 3E03          			JBS		N			; Check N = 1?
  1472 0051D 5076          			JMP	INS_FAIL
  1473 0051E 6CF0          			XOR		A,@0xF0		; Check Result ?
  1474 0051F 3A03          			JBS		Z			; Check Z = 1?
  1475 00520 5076          			JMP	INS_FAIL
  1476 00521 3603          			JBC		N			; Check N = 0?
  1477 00522 5076          			JMP	INS_FAIL
  1478 00523               		INST_AND_R_A:		;-------Instruction Test => AND R,A
  1479 00523 6011          			MOV		A,@0x11
  1480 00524 015A          			MOV		INST,A
  1481 00525 40E3          			CALL	STATUS_CLEAR
  1482 00526 6055          			MOV		A,@0x55
  1483 00527 0150          			MOV		0x50,A		; [0x50] = 0x55
  1484 00528 60AA          			MOV		A,@0xAA
  1485 00529 0B50          			AND		0x50,A		; [0x50] = 0xAA & 0x55
  1486 0052A 1003          			MOV		A,STATUS
  1487 0052B 6C1C          			XOR		A,@0x1C		; Check Status ? for non reset
  1488                     			;;XOR		A,@0x14		; Check Status ?
  1489 0052C 3A03          			JBS		Z			; Check Z = 1?
  1490 0052D 5076          			JMP	INS_FAIL
  1491 0052E 3603          			JBC		N			; Check N = 0?
  1492 0052F 5076          			JMP	INS_FAIL
  1493 00530 2203          			BC		Z
  1494 00531 1050          			MOV		A,0x50
  1495 00532 2203          			BC		Z
  1496 00533 6C00          			XOR		A,@0x00		; Check Result ?
  1497 00534 3A03          			JBS		Z			; Check Z = 1?
  1498 00535 5076          			JMP	INS_FAIL
  1499 00536 3603          			JBC		N			; Check N = 0?
  1500 00537 5076          			JMP	INS_FAIL
  1501 00538 40E3          			CALL	STATUS_CLEAR
  1502 00539 60F5          			MOV		A,@0xF5
  1503 0053A 0150          			MOV		0x50,A		; [0x50] = 0xF5
  1504 0053B 60FA          			MOV		A,@0xFA
  1505 0053C 0B50          			AND		0x50,A		; [0x50] = 0xFA & 0xF5
  1506 0053D 1003          			MOV		A,STATUS
  1507 0053E 6C58          			XOR		A,@0x58		; Check Status ? for non reset
  1508                     			;;XOR		A,@0x50		; Check Status ?
  1509 0053F 3A03          			JBS		Z			; Check Z = 1?
  1510 00540 5076          			JMP	INS_FAIL
  1511 00541 3603          			JBC		N			; Check N = 0?
  1512 00542 5076          			JMP	INS_FAIL
  1513 00543 2203          			BC		Z
  1514 00544 1050          			MOV		A,0x50
  1515 00545 2203          			BC		Z
  1516 00546 6CF0          			XOR		A,@0xF0		; Check Result ?
  1517 00547 3A03          			JBS		Z			; Check Z = 1?
  1518 00548 5076          			JMP	INS_FAIL
  1519 00549 3603          			JBC		N			; Check N = 0?
  1520 0054A 5076          			JMP	INS_FAIL
  1521 0054B               		INST_AND_A_K:		;-------Instruction Test => AND A,k
  1522 0054B 6029          			MOV		A,@0x29
  1523 0054C 015A          			MOV		INST,A
  1524 0054D 40E3          			CALL	STATUS_CLEAR
  1525 0054E 60AA          			MOV		A,@0xAA
  1526 0054F 6855          			AND		A,@0x55		; A = 0xAA & 0x55
  1527 00550 3003          			JBC		C			; Check C = 0?
  1528 00551 5076          			JMP	INS_FAIL
  1529 00552 3103          			JBC		DC			; Check DC = 0?
  1530 00553 5076          			JMP	INS_FAIL
  1531 00554 3A03          			JBS		Z			; Check Z = 1?
  1532 00555 5076          			JMP	INS_FAIL
  1533 00556 3503          			JBC		OV			; Check OV = 0?
  1534 00557 5076          			JMP	INS_FAIL
  1535 00558 3603          			JBC		N			; Check N = 0?
  1536 00559 5076          			JMP	INS_FAIL
  1537 0055A 6C00          			XOR		A,@0x00		; Check Result ?
  1538 0055B 3A03          			JBS		Z			; Check Z = 1?
  1539 0055C 5076          			JMP	INS_FAIL
  1540 0055D 3603          			JBC		N			; Check N = 0?
  1541 0055E 5076          			JMP	INS_FAIL
  1542 0055F 40E3          			CALL	STATUS_CLEAR
  1543 00560 60AA          			MOV		A,@0xAA
  1544 00561 68FF          			AND		A,@0xFF		; A = A & 0xFF
  1545 00562 3003          			JBC		C			; Check C = 0?
  1546 00563 5076          			JMP	INS_FAIL
  1547 00564 3103          			JBC		DC			; Check DC = 0?
  1548 00565 5076          			JMP	INS_FAIL
  1549 00566 3203          			JBC		Z			; Check Z = 0?
  1550 00567 5076          			JMP	INS_FAIL
  1551 00568 3503          			JBC		OV			; Check OV = 0?
  1552 00569 5076          			JMP	INS_FAIL
  1553 0056A 3E03          			JBS		N			; Check N = 1?
  1554 0056B 5076          			JMP	INS_FAIL
  1555 0056C 6CAA          			XOR		A,@0xAA		; Check Result ?
  1556 0056D 40E6          			CALL	INST_XOR_JUDGE
  1557                     
  1558 0056E               		INST_COMA:			;-------Instruction Test => COMA R
  1559 0056E 6015          			MOV		A,@0x15
  1560 0056F 015A          			MOV		INST,A
  1561 00570 40E3          			CALL	STATUS_CLEAR
  1562 00571 60FF          			MOV		A,@0xFF
  1563 00572 0150          			MOV		0x50,A		; [0x50] = 0xFF
  1564 00573 1250          			COMA	0x50		; A = /R
  1565 00574 3003          			JBC		C			; Check C = 0?
  1566 00575 5076          			JMP	INS_FAIL
  1567 00576 3103          			JBC		DC			; Check DC = 0?
  1568 00577 5076          			JMP	INS_FAIL
  1569 00578 3A03          			JBS		Z			; Check Z = 1?
  1570 00579 5076          			JMP	INS_FAIL
  1571 0057A 3503          			JBC		OV			; Check OV = 0?
  1572 0057B 5076          			JMP	INS_FAIL
  1573 0057C 3603          			JBC		N			; Check N = 0?
  1574 0057D 5076          			JMP	INS_FAIL
  1575 0057E 6C00          			XOR		A,@0x00		; Check Result ?
  1576 0057F 3A03          			JBS		Z			; Check Z = 1?
  1577 00580 5076          			JMP	INS_FAIL
  1578 00581 3603          			JBC		N			; Check N = 0?
  1579 00582 5076          			JMP	INS_FAIL	
  1580 00583 40E3          			CALL	STATUS_CLEAR
  1581 00584 6005          			MOV		A,@0x05
  1582 00585 0150          			MOV		0x50,A		; [0x50] = 0x05
  1583 00586 1250          			COMA	0x50		; A = /R
  1584 00587 3003          			JBC		C			; Check C = 0?
  1585 00588 5076          			JMP	INS_FAIL
  1586 00589 3103          			JBC		DC			; Check DC = 0?
  1587 0058A 5076          			JMP	INS_FAIL
  1588 0058B 3203          			JBC		Z			; Check Z = 0?
  1589 0058C 5076          			JMP	INS_FAIL
  1590 0058D 3503          			JBC		OV			; Check OV = 0?
  1591 0058E 5076          			JMP	INS_FAIL
  1592 0058F 3E03          			JBS		N			; Check N = 1?
  1593 00590 5076          			JMP	INS_FAIL
  1594 00591 6CFA          			XOR		A,@0xFA		; Check Result ?
  1595 00592 3A03          			JBS		Z			; Check Z = 1?
  1596 00593 5076          			JMP	INS_FAIL
  1597 00594 3603          			JBC		N			; Check N = 0?
  1598 00595 5076          			JMP	INS_FAIL
  1599 00596               		INST_COM:			;-------Instruction Test => COM R
  1600 00596 6016          			MOV		A,@0x16
  1601 00597 015A          			MOV		INST,A
  1602 00598 40E3          			CALL	STATUS_CLEAR
  1603 00599 60FF          			MOV		A,@0xFF
  1604 0059A 0150          			MOV		0x50,A		; [0x50] = 0xFF
  1605 0059B 1350          			COM		0x50		; [0x50] = /[0x50]
  1606 0059C 1003          			MOV		A,STATUS
  1607 0059D 6C1C          			XOR		A,@0x1C		; Check Status ?
  1608                     			;;XOR		A,@0x14		; Check Status ?
  1609 0059E 3A03          			JBS		Z			; Check Z = 1?
  1610 0059F 5076          			JMP	INS_FAIL
  1611 005A0 3603          			JBC		N			; Check N = 0?
  1612 005A1 5076          			JMP	INS_FAIL
  1613 005A2 2203          			BC		Z
  1614 005A3 2603          			BC		N
  1615 005A4 1050          			MOV		A,0x50
  1616 005A5 6C00          			XOR		A,@0x00		; Check Result ?
  1617 005A6 3A03          			JBS		Z			; Check Z = 1?
  1618 005A7 5076          			JMP	INS_FAIL
  1619 005A8 3603          			JBC		N			; Check N = 0?
  1620 005A9 5076          			JMP	INS_FAIL
  1621 005AA 40E3          			CALL	STATUS_CLEAR
  1622 005AB 6000          			MOV		A,@0x00
  1623 005AC 0150          			MOV		0x50,A		; [0x50] = 0xFF
  1624 005AD 1350          			COM		0x50		; [0x50] = /[0x50]
  1625 005AE 1003          			MOV		A,STATUS
  1626 005AF 6C58          			XOR		A,@0x58		; Check Status ?
  1627                     			;;XOR		A,@0x50		; Check Status ?
  1628 005B0 3A03          			JBS		Z			; Check Z = 1?
  1629 005B1 5076          			JMP	INS_FAIL
  1630 005B2 3603          			JBC		N			; Check N = 0?
  1631 005B3 5076          			JMP	INS_FAIL
  1632 005B4 2203          			BC		Z
  1633 005B5 2603          			BC		N
  1634 005B6 1050          			MOV		A,0x50
  1635 005B7 6CFF          			XOR		A,@0xFF		; Check Result ?
  1636 005B8 3A03          			JBS		Z			; Check Z = 1?
  1637 005B9 5076          			JMP	INS_FAIL
  1638 005BA 3603          			JBC		N			; Check N = 0?
  1639 005BB 5076          			JMP	INS_FAIL
  1640 005BC               		INST_OR_A_K:		;-------Instruction Test => OR A,k
  1641 005BC 6026          			MOV		A,@0x26
  1642 005BD 015A          			MOV		INST,A
  1643 005BE 40E3          			CALL	STATUS_CLEAR
  1644 005BF 60A5          			MOV		A,@0xA5
  1645 005C0 645A          			OR		A,@0x5A		; A = 0xA5 | 0x5A
  1646 005C1 6CFF          			XOR		A,@0xFF		; Check Result ?
  1647 005C2 40E6          			CALL	INST_XOR_JUDGE
  1648 005C3 0012          		RET
  1649                     
  1650 005C4               	TEST_INST_LOGIC_II:
  1651 005C4               		INST_RR_R:			;-------Instruction Test => RR R
  1652 005C4 602B          			MOV		A,@0x2B
  1653 005C5 015A          			MOV		INST,A
  1654 005C6 40E3          			CALL	STATUS_CLEAR
  1655 005C7 6055          			MOV		A,@0x55
  1656 005C8 0150          			MOV		0x50,A		; [0x50] = 0x55
  1657 005C9 6F50          			RR		0x50		; [0x50] = [0x50] >> 1
  1658 005CA 1003          			MOV		A,STATUS
  1659 005CB 6C58          			XOR		A,@0x58		; Check Status ?
  1660                     			;;XOR		A,@0x50		; Check Status ?
  1661 005CC 40E6          			CALL	INST_XOR_JUDGE
  1662 005CD 1050          			MOV		A,0x50
  1663 005CE 6CAA          			XOR		A,@0xAA		; Check Result ?
  1664 005CF 40E6          			CALL	INST_XOR_JUDGE
  1665                     
  1666 005D0               		INST_RRA_R:			;-------Instruction Test => RRA R
  1667 005D0 602A          			MOV		A,@0x2A
  1668 005D1 015A          			MOV		INST,A
  1669 005D2 40E3          			CALL 	STATUS_CLEAR
  1670 005D3 6055          			MOV		A,@0x55
  1671 005D4 0150          			MOV		0x50,A		; [0x50] = 0x55
  1672 005D5 6E50          			RRA		0x50		; A = [0x50] >> 1
  1673 005D6 3003          			JBC		C			; Check C = 0?
  1674 005D7 5076          			JMP	INS_FAIL
  1675 005D8 3103          			JBC		DC			; Check DC = 0?
  1676 005D9 5076          			JMP	INS_FAIL
  1677 005DA 3203          			JBC		Z			; Check Z = 0?
  1678 005DB 5076          			JMP	INS_FAIL
  1679 005DC 3503          			JBC		OV			; Check OV = 0?
  1680 005DD 5076          			JMP	INS_FAIL
  1681 005DE 3E03          			JBS		N			; Check N = 1?
  1682 005DF 5076          			JMP	INS_FAIL
  1683 005E0 6CAA          			XOR		A,@0xAA		; Check Result ?
  1684 005E1 40E6          			CALL	INST_XOR_JUDGE
  1685                     
  1686 005E2               		INST_RRCA_R:		;-------Instruction Test => RRCA R
  1687 005E2 601B          			MOV		A,@0x1B
  1688 005E3 015A          			MOV		INST,A
  1689 005E4 40E3          			CALL	STATUS_CLEAR
  1690 005E5 2803          			BS		C
  1691 005E6 60AA          			MOV		A,@0xAA
  1692 005E7 0150          			MOV		0x50,A		; [0x50] = 0xAA
  1693 005E8 1850          			RRCA	0x50		; A = [0x50] >> 1
  1694 005E9 3003          			JBC		C			; Check C = 0?
  1695 005EA 5076          			JMP	INS_FAIL
  1696 005EB 3103          			JBC		DC			; Check DC = 0?
  1697 005EC 5076          			JMP	INS_FAIL
  1698 005ED 3203          			JBC		Z			; Check Z = 0?
  1699 005EE 5076          			JMP	INS_FAIL
  1700 005EF 3503          			JBC		OV			; Check OV = 0?
  1701 005F0 5076          			JMP	INS_FAIL
  1702 005F1 3E03          			JBS		N			; Check N = 1?
  1703 005F2 5076          			JMP	INS_FAIL
  1704 005F3 6CD5          			XOR		A,@0xD5		; Check Result ?
  1705 005F4 40E6          			CALL	INST_XOR_JUDGE
  1706 005F5 40E3          			CALL	STATUS_CLEAR
  1707 005F6 6055          			MOV		A,@0x55
  1708 005F7 0150          			MOV		0x50,A		; [0x50] = 0x55
  1709 005F8 1850          			RRCA	0x50		; A = [0x50] >> 1
  1710 005F9 3803          			JBS		C			; Check C = 1?
  1711 005FA 5076          			JMP	INS_FAIL
  1712 005FB 3103          			JBC		DC			; Check DC = 0?
  1713 005FC 5076          			JMP	INS_FAIL
  1714 005FD 3203          			JBC		Z			; Check Z = 0?
  1715 005FE 5076          			JMP	INS_FAIL
  1716 005FF 3503          			JBC		OV			; Check OV = 0?
  1717 00600 5076          			JMP	INS_FAIL
  1718 00601 3603          			JBC		N			; Check N = 0?
  1719 00602 5076          			JMP	INS_FAIL
  1720 00603 6C2A          			XOR		A,@0x2A		; Check Result ?
  1721 00604 40E6          			CALL	INST_XOR_JUDGE
  1722 00605               		INST_RRC_R:			;-------Instruction Test => RRC R
  1723 00605 601C          			MOV		A,@0x1C
  1724 00606 015A          			MOV		INST,A
  1725 00607 40E3          			CALL	STATUS_CLEAR
  1726 00608 2803          			BS		C
  1727 00609 60AA          			MOV		A,@0xAA
  1728 0060A 0150          			MOV		0x50,A		; [0x50] = 0xAA
  1729 0060B 2203          			BC		Z
  1730 0060C 1950          			RRC		0x50		; [0x50] = [0x50] >> 1
  1731 0060D 1003          			MOV		A,STATUS
  1732 0060E 6C58          			XOR		A,@0x58		; Check Status ?
  1733                     			;;XOR		A,@0x50		; Check Status ?
  1734 0060F 40E6          			CALL	INST_XOR_JUDGE
  1735 00610 1050          			MOV		A,0x50
  1736 00611 6CD5          			XOR		A,@0xD5		; Check Result ?
  1737 00612 40E6          			CALL	INST_XOR_JUDGE
  1738 00613 40E3          			CALL	STATUS_CLEAR
  1739 00614 6055          			MOV		A,@0x55
  1740 00615 0150          			MOV		0x50,A		; [0x50] = 0x55
  1741 00616 2203          			BC		Z
  1742 00617 1950          			RRC		0x50		; [0x50] = [0x50] >> 1
  1743 00618 1003          			MOV		A,STATUS
  1744 00619 6C19          			XOR		A,@0x19		; Check Status ?
  1745                     			;;XOR		A,@0x11		; Check Status ?
  1746 0061A 3A03          			JBS		Z			; Check Z = 1?
  1747 0061B 5076          			JMP	INS_FAIL
  1748 0061C 3603          			JBC		N			; Check N = 0?
  1749 0061D 5076          			JMP	INS_FAIL
  1750 0061E 1050          			MOV		A,0x50
  1751 0061F 6C2A          			XOR		A,@0x2A		; Check Result ?
  1752 00620 40E6          			CALL	INST_XOR_JUDGE
  1753 00621               		INST_RLCA_R:		;-------Instruction Test => RLCA R
  1754 00621 601D          			MOV		A,@0x1D
  1755 00622 015A          			MOV		INST,A
  1756 00623 40E3          			CALL STATUS_CLEAR
  1757 00624 2803          			BS		C
  1758 00625 6055          			MOV		A,@0x55
  1759 00626 0150          			MOV		0x50,A		; [0x50] = 0x55
  1760 00627 1A50          			RLCA	0x50		; A = [0x50] << 1
  1761 00628 3003          			JBC		C			; Check C = 0?
  1762 00629 5076          			JMP	INS_FAIL
  1763 0062A 3103          			JBC		DC			; Check DC = 0?
  1764 0062B 5076          			JMP	INS_FAIL
  1765 0062C 3203          			JBC		Z			; Check Z = 0?
  1766 0062D 5076          			JMP	INS_FAIL
  1767 0062E 3503          			JBC		OV			; Check OV = 0?
  1768 0062F 5076          			JMP	INS_FAIL
  1769 00630 3E03          			JBS		N			; Check N = 1?
  1770 00631 5076          			JMP	INS_FAIL
  1771 00632 6CAB          			XOR		A,@0xAB		; Check Result ?
  1772 00633 40E6          			CALL	INST_XOR_JUDGE
  1773 00634 40E3          			CALL	STATUS_CLEAR
  1774 00635 60AA          			MOV		A,@0xAA
  1775 00636 0150          			MOV		0x50,A		; [0x50] = 0xAA
  1776 00637 1A50          			RLCA	0x50		; A = [0x50] << 1
  1777 00638 3803          			JBS		C			; Check C = 1?
  1778 00639 5076          			JMP	INS_FAIL
  1779 0063A 3103          			JBC		DC			; Check DC = 0?
  1780 0063B 5076          			JMP	INS_FAIL
  1781 0063C 3203          			JBC		Z			; Check Z = 0?
  1782 0063D 5076          			JMP	INS_FAIL
  1783 0063E 3503          			JBC		OV			; Check OV = 0?
  1784 0063F 5076          			JMP	INS_FAIL
  1785 00640 3603          			JBC		N			; Check N = 0?
  1786 00641 5076          			JMP	INS_FAIL
  1787 00642 6C54          			XOR		A,@0x54		; Check Result ?
  1788 00643 40E6          			CALL	INST_XOR_JUDGE
  1789 00644               		INST_RLC_R:			;-------Instruction Test => RLC R
  1790 00644 601E          			MOV		A,@0x1E
  1791 00645 015A          			MOV		INST,A
  1792 00646 40E3          			CALL	STATUS_CLEAR
  1793 00647 2803          			BS		C
  1794 00648 6055          			MOV		A,@0x55
  1795 00649 0150          			MOV		0x50,A		; [0x50] = 0x55
  1796 0064A 1B50          			RLC		0x50		; [0x50] = [0x50] << 1
  1797 0064B 1003          			MOV		A,STATUS
  1798 0064C 6C58          			XOR		A,@0x58		; Check Status ?
  1799                     			;;XOR		A,@0x50		; Check Status ?
  1800 0064D 40E6          			CALL	INST_XOR_JUDGE
  1801 0064E 1050          			MOV		A,0x50
  1802 0064F 6CAB          			XOR		A,@0xAB		; Check Result ?
  1803 00650 40E6          			CALL	INST_XOR_JUDGE
  1804 00651 40E3          			CALL	STATUS_CLEAR
  1805 00652 60AA          			MOV		A,@0xAA
  1806 00653 0150          			MOV		0x50,A		; [0x50] = 0xAA
  1807 00654 1B50          			RLC		0x50		; [0x50] = [0x50] << 1
  1808 00655 1003          			MOV		A,STATUS
  1809 00656 6C19          			XOR		A,@0x19		; Check Status ?
  1810                     			;;XOR		A,@0x11		; Check Status ?
  1811 00657 40E6          			CALL	INST_XOR_JUDGE
  1812 00658 1050          			MOV		A,0x50
  1813 00659 6C54          			XOR		A,@0x54		; Check Result ?
  1814 0065A 40E6          			CALL	INST_XOR_JUDGE
  1815                     
  1816 0065B               		INST_RLA_A:			;-------Instruction Test => RLA R
  1817 0065B 602E          			MOV		A,@0x2E
  1818 0065C 015A          			MOV		INST,A
  1819 0065D 40E3          			CALL	STATUS_CLEAR
  1820 0065E 605A          			MOV		A,@0x5A
  1821 0065F 0150          			MOV		0x50,A		; [0x50] = 0x5A
  1822 00660 7250          			RLA		0x50		; A = [0x50] << 1
  1823 00661 3003          			JBC		C			; Check C = 0?
  1824 00662 5076          			JMP	INS_FAIL
  1825 00663 3103          			JBC		DC			; Check DC = 0?
  1826 00664 5076          			JMP	INS_FAIL
  1827 00665 3203          			JBC		Z			; Check Z = 0?
  1828 00666 5076          			JMP	INS_FAIL
  1829 00667 3503          			JBC		OV			; Check OV = 0?
  1830 00668 5076          			JMP	INS_FAIL
  1831 00669 3E03          			JBS		N			; Check N = 1?
  1832 0066A 5076          			JMP	INS_FAIL
  1833 0066B 6CB4          			XOR		A,@0xB4		; Check Result ?
  1834 0066C 40E6          			CALL	INST_XOR_JUDGE
  1835                     
  1836 0066D               		INST_RL_R:			;-------Instruction Test => RL R
  1837 0066D 602F          			MOV		A,@0x2F
  1838 0066E 015A          			MOV		INST,A
  1839 0066F 40E3          			CALL	STATUS_CLEAR
  1840 00670 605A          			MOV		A,@0x5A
  1841 00671 0150          			MOV		0x50,A		; [0x50] = 0xA5
  1842 00672 7350          			RL		0x50		; [0x50] = [0x50] << 1
  1843 00673 1003          			MOV		A,STATUS
  1844 00674 6C58          			XOR		A,@0x58		; Check Status ?
  1845                     			;;XOR		A,@0x50		; Check Status ?
  1846 00675 3A03          			JBS		Z			; Check Z = 1?
  1847 00676 5076          			JMP	INS_FAIL
  1848 00677 3603          			JBC		N			; Check N = 0?
  1849 00678 5076          			JMP	INS_FAIL
  1850 00679 1050          			MOV		A,0x50
  1851 0067A 6CB4          			XOR		A,@0xB4		; Check Result ?
  1852 0067B 40E6          			CALL	INST_XOR_JUDGE
  1853 0067C               		INST_XCH:			;-------Instruction Test => XCH R
  1854 0067C 602D          			MOV		A,@0x2D
  1855 0067D 015A          			MOV		INST,A
  1856 0067E 40E3          			CALL	STATUS_CLEAR
  1857 0067F 6055          			MOV		A,@0x55
  1858 00680 0150          			MOV		0x50,A		; [0x50] = 0x55
  1859 00681 60AA          			MOV		A,@0xAA
  1860 00682 7150          			XCH		0x50		; [0x50] <-> A
  1861 00683 6C55          			XOR		A,@0x55		; Check Result ?
  1862 00684 3A03          			JBS		Z			; Check Z = 1?
  1863 00685 5076          			JMP	INS_FAIL
  1864 00686 3603          			JBC		N			; Check N = 0?
  1865 00687 5076          			JMP	INS_FAIL
  1866 00688 1050          			MOV		A,0x50
  1867 00689 6CAA          			XOR		A,@0xAA		; Check Result ?
  1868 0068A 40E6          			CALL	INST_XOR_JUDGE
  1869 0068B 0012          		RET
  1870 0068C               	TEST_INST_TRANSFER:
  1871 0068C               		INST_MOV_R_A:		;-------Instruction Test => MOV R,A
  1872 0068C 6007          			MOV		A,@0x07
  1873 0068D 015A          			MOV		INST,A
  1874 0068E 40E3          			CALL	STATUS_CLEAR
  1875 0068F 60FF          			MOV		A,@0xFF
  1876 00690 0150          			MOV		0x50,A
  1877 00691 1003          			MOV		A,STATUS
  1878 00692 6C18          			XOR		A,@0x18		;At  OCDS
  1879                     			;XOR		A,@0x98		; Check Status ? ;; For not reset
  1880                     			;;XOR		A,@0x10		; Check Status ?
  1881 00693 40E6          			CALL	INST_XOR_JUDGE
  1882 00694 1050          			MOV		A,0x50
  1883 00695 6CFF          			XOR		A,@0xFF		; Check Result ?
  1884 00696 40E6          			CALL	INST_XOR_JUDGE
  1885 00697               		INST_MOV_R_R:		;-------Instruction Test => MOV R,R
  1886 00697 6014          			MOV		A,@0x14
  1887 00698 015A          			MOV		INST,A
  1888 00699 40E3          			CALL	STATUS_CLEAR
  1889 0069A 6000          			MOV		A,@0x00
  1890 0069B 0150          			MOV		0x50,A		; [0x50] = 0x00		
  1891 0069C 1150          			MOV		0x50,0x50	; [0x50] = [0x50]
  1892 0069D 1003          			MOV		A,STATUS
  1893 0069E 6C1C          			XOR		A,@0x1C		; Check Status ?
  1894                     			;;XOR		A,@0x14		; Check Status ?
  1895 0069F 3A03          			JBS		Z			; Check Z = 1?
  1896 006A0 5076          			JMP	INS_FAIL
  1897 006A1 3603          			JBC		N			; Check N = 0?
  1898 006A2 5076          			JMP	INS_FAIL
  1899 006A3 1050          			MOV		A,0x50
  1900 006A4 2203          			BC		Z
  1901 006A5 6C00          			XOR		A,@0x00		; Check Result ?
  1902 006A6 3A03          			JBS		Z			; Check Z = 1?
  1903 006A7 5076          			JMP	INS_FAIL
  1904 006A8 3603          			JBC		N			; Check N = 0?
  1905 006A9 5076          			JMP	INS_FAIL
  1906 006AA 40E3          			CALL	STATUS_CLEAR
  1907 006AB 6000          			MOV		A,@0x00
  1908 006AC 0150          			MOV		0x50,A		; [0x50] = 0x00		
  1909 006AD 1150          			MOV		0x50,0x50	; [0x50] = [0x50]
  1910 006AE 2850          			BS		0x50,0
  1911 006AF 1050          			MOV		A,0x50
  1912 006B0 6C01          			XOR		A,@0x01		; Check Result ?
  1913 006B1 40E6          			CALL	INST_XOR_JUDGE
  1914                     
  1915 006B2               		INST_SWAPA_R:		;-------Instruction Test => SWAPA R
  1916 006B2 601F          			MOV		A,@0x1F
  1917 006B3 015A          			MOV		INST,A
  1918 006B4 40E3          			CALL	STATUS_CLEAR
  1919 006B5 605A          			MOV		A,@0x5A
  1920 006B6 0150          			MOV		0x50,A		; [0x50] = 0x5A
  1921 006B7 1C50          			SWAPA	0x50
  1922 006B8 6CA5          			XOR		A,@0xA5		; Check Result ?
  1923 006B9 40E6          			CALL	INST_XOR_JUDGE
  1924 006BA               		INST_SWAP_R:		;-------Instruction Test => SWAP R
  1925 006BA 6020          			MOV		A,@0x20
  1926 006BB 015A          			MOV		INST,A
  1927 006BC 40E3          			CALL	STATUS_CLEAR
  1928 006BD 605A          			MOV		A,@0x5A
  1929 006BE 0150          			MOV		0x50,A		; [0x50] = 0x5A
  1930 006BF 1D50          			SWAP	0x50
  1931 006C0 1050          			MOV		A,0x50
  1932 006C1 6CA5          			XOR		A,@0xA5		; Check Result ?
  1933 006C2 40E6          			CALL	INST_XOR_JUDGE
  1934 006C3 0012          		RET
  1935                     
  1936 006C4               	TEST_INST_MANIPULATION:
  1937 006C4 0012          		RET
  1938                     
  1939 006C5               	TEST_INST_BRANCH_I:
  1940 006C5               		INST_DJZ_R:			;------- Instruction Test => DJZ R
  1941 006C5 601A          			MOV		A,@0x1A
  1942 006C6 015A          			MOV		INST,A
  1943 006C7 40E3          			CALL	STATUS_CLEAR
  1944 006C8 6001          			MOV		A,@0x01
  1945 006C9 0150          			MOV		0x50,A		; [0x50] = 0x01
  1946 006CA 1750          			DJZ		0x50		; [0x50] = [0x50] - 1,if z,skip
  1947 006CB 5076          			JMP		INS_FAIL
  1948 006CC 1050          			MOV		A,0x50
  1949 006CD 6C00          			XOR		A,@0x00		; Check Result ?
  1950 006CE 40E6          			CALL	INST_XOR_JUDGE	
  1951 006CF 40E3          			CALL	STATUS_CLEAR
  1952 006D0 6002          			MOV		A,@0x02
  1953 006D1 0150          			MOV		0x50,A		; [0x50] = 0x02
  1954 006D2 1750          			DJZ		0x50		; [0x50] = [0x50] - 1,if z,skip
  1955 006D3 56D5          			JMP		$+2
  1956 006D4 5076          			JMP		INS_FAIL
  1957 006D5               		INST_DJZA_R:		;------- Instruction Test => DJZA R
  1958 006D5 6019          			MOV		A,@0x19
  1959 006D6 015A          			MOV		INST,A
  1960 006D7 40E3          			CALL	STATUS_CLEAR
  1961 006D8 6001          			MOV		A,@0x01
  1962 006D9 0150          			MOV		0x50,A		; [0x50] = 0x01
  1963 006DA 1650          			DJZA	0x50		; A = [0x50] - 0x01,if z,skip
  1964 006DB 5076          			JMP	INS_FAIL
  1965 006DC 6C00          			XOR		A,@0x00		; Check Result ?
  1966 006DD 40E6          			CALL	INST_XOR_JUDGE
  1967 006DE 40E3          			CALL	STATUS_CLEAR
  1968 006DF 6002          			MOV		A,@0x02
  1969 006E0 0150          			MOV		0x50,A		; [0x50] = 0x02
  1970 006E1 1650          			DJZA	0x50		; A = [0x50] - 0x01,if z,skip
  1971 006E2 56E4          			JMP		$+2
  1972 006E3 5076          			JMP	INS_FAIL
  1973 006E4               		INST_JZA_R:			;-------Instruction Test => JZA R
  1974 006E4 6021          			MOV		A,@0x21
  1975 006E5 015A          			MOV		INST,A
  1976 006E6 40E3          			CALL	STATUS_CLEAR
  1977 006E7 60FF          			MOV		A,@0xFF
  1978 006E8 0150          			MOV		0x50,A
  1979 006E9 1E50          			JZA		0x50		; A = [0x50] + 1,if 0 skip
  1980 006EA 5076          			JMP		INS_FAIL
  1981 006EB 6C00          			XOR		A,@0x00		; Check Result ?
  1982 006EC 40E6          			CALL	INST_XOR_JUDGE
  1983 006ED 40E3          			CALL	STATUS_CLEAR
  1984 006EE 6080          			MOV		A,@0x80
  1985 006EF 0150          			MOV		0x50,A
  1986 006F0 1E50          			JZA		0x50		; A = [0x50] + 1,if 0 skip
  1987 006F1 56F3          			JMP		$+2
  1988 006F2 5076          			JMP		INS_FAIL
  1989 006F3               		INST_JZ_R:			;-------Instruction Test => JZ R
  1990 006F3 6022          			MOV		A,@0x22
  1991 006F4 015A          			MOV		INST,A
  1992 006F5 40E3          			CALL	STATUS_CLEAR
  1993 006F6 60FF          			MOV		A,@0xFF
  1994 006F7 0150          			MOV		0x50,A		; [0x50] = 0xFF
  1995 006F8 1F50          			JZ		0x50		; [0x50] = [0x50] + 1,if 0 skip
  1996 006F9 5076          			JMP		INS_FAIL
  1997 006FA 1050          			MOV		A,0x50
  1998 006FB 6C00          			XOR		A,@0x00		; Check Result ?
  1999 006FC 40E6          			CALL	INST_XOR_JUDGE
  2000 006FD 40E3          			CALL	STATUS_CLEAR
  2001 006FE 6080          			MOV		A,@0x80
  2002 006FF 0150          			MOV		0x50,A		; [0x50] = 0xFF
  2003 00700 1F50          			JZ		0x50		; [0x50] = [0x50] + 1,if 0 skip
  2004 00701 5703          			JMP		$+2
  2005 00702 5076          			JMP		INS_FAIL
  2006 00703 0012          		RET
  2007 00704               	TEST_INST_BRANCH_II:
  2008 00704               		INST_JE_R:			;-------Instruction Test => JE R
  2009 00704 6023          			MOV		A,@0x23
  2010 00705 015A          			MOV		INST,A
  2011 00706 40E3          			CALL	STATUS_CLEAR
  2012 00707 605A          			MOV		A,@0x5A
  2013 00708 0150          			MOV		0x50,A		; [0x50] = 0x5A
  2014 00709 6150          			JE		0x50		; [0x50] = A?
  2015 0070A 5076          			JMP		INS_FAIL
  2016 0070B 605B          			MOV		A,@0x5B
  2017 0070C 0150          			MOV		0x50,A		; [0x50] = 0x5B
  2018 0070D 605C          			MOV		A,@0x5C
  2019 0070E 6150          			JE		0x50		; [0x50] = A(0x5C)?
  2020 0070F 5711          			JMP		$+2
  2021 00710 5076          			JMP		INS_FAIL
  2022 00711               		INST_JGE_R:			;-------Instruction Test => JGE R
  2023 00711 6024          			MOV		A,@0x24
  2024 00712 015A          			MOV		INST,A
  2025 00713 40E3          			CALL	STATUS_CLEAR
  2026 00714 607F          			MOV		A,@0x7F
  2027 00715 0150          			MOV		0x50,A		; [0x50] = 0x7F
  2028 00716 6000          			MOV		A,@0x00
  2029 00717 6250          			JGE		0x50		; [0x50] > A ?
  2030 00718 5076          			JMP		INS_FAIL
  2031 00719 40E3          			CALL	STATUS_CLEAR
  2032 0071A 60FF          			MOV		A,@0xFF
  2033 0071B 0150          			MOV		0x50,A		; [0x50] = 0xFF
  2034 0071C 6080          			MOV		A,@0x80
  2035 0071D 6250          			JGE		0x50		; [0x50] > A ?
  2036 0071E 5076          			JMP		INS_FAIL
  2037 0071F 40E3          			CALL	STATUS_CLEAR
  2038 00720 6000          			MOV		A,@0x00
  2039 00721 0150          			MOV		0x50,A		; [0x50] = 0x00
  2040 00722 60FF          			MOV		A,@0xFF
  2041 00723 6250          			JGE		0x50		; [0x50] > A(0xFF) ?x
  2042 00724 5726          			JMP		$+2
  2043 00725 5076          			JMP		INS_FAIL
  2044                     
  2045 00726               		INST_JLE_R:			;-------Instruction Test => JLE R
  2046 00726 6025          			MOV		A,@0x25
  2047 00727 015A          			MOV		INST,A
  2048 00728 40E3          			CALL	STATUS_CLEAR
  2049 00729 6000          			MOV		A,@0x00
  2050 0072A 0150          			MOV		0x50,A		; [0x50] = 0x00
  2051 0072B 607F          			MOV		A,@0x7F
  2052 0072C 6350          			JLE		0x50		; [0x50] < A ?
  2053 0072D 5076          			JMP		INS_FAIL
  2054 0072E 6000          			MOV		A,@0x00
  2055 0072F 0103          			MOV		STATUS,A
  2056 00730 6080          			MOV		A,@0x80
  2057 00731 0150          			MOV		0x50,A		; [0x50] = 0x80
  2058 00732 60FF          			MOV		A,@0xFF
  2059 00733 6350          			JLE		0x50		; [0x50] < A ?
  2060 00734 5076          			JMP		INS_FAIL
  2061 00735 40E3          			CALL	STATUS_CLEAR
  2062 00736 60FF          			MOV		A,@0xFF
  2063 00737 0150          			MOV		0x50,A		; [0x50] = 0xFF
  2064 00738 6000          			MOV		A,@0x00
  2065 00739 6350          			JLE		0x50		; [0x50] < A(0x00) ?x
  2066 0073A 573C          			JMP		$+2
  2067 0073B 5076          			JMP		INS_FAIL
  2068 0073C               		INST_JE_K:			;-------Instruction Test => JE k
  2069 0073C 6027          			MOV		A,@0x27
  2070 0073D 015A          			MOV		INST,A
  2071 0073E 40E3          			CALL	STATUS_CLEAR
  2072 0073F 607F          			MOV		A,@0x7F
  2073 00740 657F          			JE		@0x7F
  2074 00741 5076          			JMP	INS_FAIL
  2075 00742 0012          		RET
  2076 00743               	TEST_INST_BRANCH_III:
  2077 00743               		INST_CALL_K:		;-------Instruction Test => CALL k
  2078 00743 6002          			MOV	A,@0x02
  2079 00744 015A          			MOV	INST,A
  2080 00745 40E3          			CALL	STATUS_CLEAR
  2081 00746 6003          			MOV		A,@0x03
  2082 00747 0150          			MOV		0x50,A
  2083 00748 47E9          			CALL	CALL_Test
  2084 00749 1050          			MOV		A,0x50
  2085 0074A 6C04          			XOR		A,@0x04
  2086 0074B 40E6          			CALL	INST_XOR_JUDGE
  2087                     
  2088 0074C               		INST_LCALL_K:		;-------Instruction Test => LCALL k
  2089 0074C 6003          			MOV		A,@0x03
  2090 0074D 015A          			MOV		INST,A
  2091 0074E 40E3          			CALL	STATUS_CLEAR
  2092 0074F 6003          			MOV		A,@0x03
  2093 00750 0151          			MOV		0x51,A
  2094 00751 7A80          			LCALL	LCALL_Test
  2094 00752 0FFE          			LCALL	LCALL_Test
***     Warning A053: The target address of 'lcall' or 'ljmp' instruction is not over page (4K).
  2095 00753 1051          			MOV		A,0x51
  2096 00754 6C04          			XOR		A,@0x04		; Check Result ?
  2097 00755 40E6          			CALL	INST_XOR_JUDGE
  2098                     
  2099 00756               		INST_RETL_K:		;-------Instruction Test => RETL k
  2100 00756 602C          			MOV		A,@0x2C
  2101 00757 015A          			MOV		INST,A
  2102 00758 40E3          			CALL	STATUS_CLEAR
  2103 00759 6000          			MOV		A,@0x00
  2104 0075A 4EF0          			CALL	INST_RETL_TABLE
  2105 0075B 6CA1          			XOR		A,@0xA1
  2106 0075C 40E6          			CALL	INST_XOR_JUDGE
  2107 0075D 6001          			MOV		A,@0x01
  2108 0075E 4EF0          			CALL	INST_RETL_TABLE
  2109 0075F 6CA2          			XOR		A,@0xA2
  2110 00760 40E6          			CALL	INST_XOR_JUDGE
  2111 00761 6002          			MOV		A,@0x02
  2112 00762 4EF0          			CALL	INST_RETL_TABLE
  2113 00763 6CA4          			XOR		A,@0xA4
  2114 00764 40E6          			CALL	INST_XOR_JUDGE
  2115 00765 6003          			MOV		A,@0x03
  2116 00766 4EF0          			CALL	INST_RETL_TABLE
  2117 00767 6CA8          			XOR		A,@0xA8
  2118 00768 40E6          			CALL	INST_XOR_JUDGE
  2119 00769 0012          		RET
  2120 0076A               	TEST_INST_CONTROL:
  2121 0076A               		INST_ENI:			;-------Instruction Test => ENI , IT?
  2122 0076A 6004          			MOV		A,@0x04
  2123 0076B 015A          			MOV		INST,A
  2124 0076C 0010          			ENI
  2125 0076D 3F03          			JBS		IT		; Check IT = 1?
  2126 0076E 5076          			JMP	INS_FAIL
  2127 0076F               		INST_DISI:			;-------Instruction Test => DISI , IT?
  2128 0076F 6005          			MOV		A,@0x05
  2129 00770 015A          			MOV		INST,A
  2130 00771 0011          			DISI
  2131 00772 3703          			JBC		IT		; Check IT = 0?
  2132 00773 5076          			JMP	INS_FAIL
  2133 00774 0012          		RET
  2134                     
  2135 00775               	TEST_SHORT_BRANCH:
  2136                     		;ORG	0x800
  2137 00775 40E3          		CALL	STATUS_CLEAR
  2138 00776 2803          		BS	C
  2139 00777 6903          		SJC		@0x03
  2140 00778 506A          		JMP		JMP_FAIL
  2141 00779 506A          		JMP		JMP_FAIL
  2142 0077A 506A          		JMP		JMP_FAIL
  2143 0077B 2003          		BC	C
  2144 0077C 6A03          		SJNC	bbb		;@0x03
  2145 0077D 506A          		JMP		JMP_FAIL
  2146 0077E 506A          		JMP		JMP_FAIL
  2147 0077F 506A          		JMP		JMP_FAIL
  2148 00780               		bbb:		
  2149 00780 2A03          			BS		Z
  2150 00781 6B03          			SJZ		@0x03
  2151 00782 506A          			JMP		JMP_FAIL
  2152 00783 506A          			JMP		JMP_FAIL
  2153 00784 506A          			JMP		JMP_FAIL
  2154 00785 0200          			CLRA
  2155 00786 6B03          			SJZ		@0x03
  2156 00787 506A          			JMP		JMP_FAIL
  2157 00788 506A          			JMP		JMP_FAIL
  2158 00789 506A          			JMP		JMP_FAIL
  2159 0078A 5792          		JMP		IATEST1		;JMP back Test as below
  2160 0078B               		aaa:	
  2161 0078B 579F          			JMP	IATEST2		; -9
  2162 0078C 506A          			JMP	JMP_FAIL	; -8
  2163 0078D 506A          			JMP	JMP_FAIL	; -7
  2164 0078E 506A          			JMP	JMP_FAIL	; -6
  2165 0078F 506A          			JMP	JMP_FAIL	; -5
  2166 00790 506A          			JMP	JMP_FAIL	; -4
  2167 00791 506A          			JMP	JMP_FAIL	; -3
  2168 00792               		IATEST1:	
  2169 00792 2803          			BS		C		; -2
  2170 00793 69F7          			SJC		aaa		; -1
  2171 00794 69F7          			SJC		@0xF7	; -1
  2172 00795 506A          			JMP		JMP_FAIL
  2173 00796 506A          			JMP		JMP_FAIL
  2174 00797 506A          			JMP		JMP_FAIL
  2175 00798 57AB          			JMP		IATEST3		; -9
  2176 00799 506A          			JMP		JMP_FAIL	; -8
  2177 0079A 506A          			JMP		JMP_FAIL	; -7
  2178 0079B 506A          			JMP		JMP_FAIL	; -6
  2179 0079C 506A          			JMP		JMP_FAIL	; -5
  2180 0079D 506A          			JMP		JMP_FAIL	; -4
  2181 0079E 506A          			JMP		JMP_FAIL	; -3
  2182 0079F               		IATEST2:	
  2183 0079F 2003          			BC		C		; -2
  2184 007A0 6AF7          			SJNC		@0xF7	; -1
  2185 007A1 57BC          			JMP		_IPass
  2186 007A2 57BC          			JMP		_IPass
  2187 007A3 57BC          			JMP		_IPass
  2188 007A4 57B7          			JMP		IATEST4		; -9
  2189 007A5 506A          			JMP		JMP_FAIL	; -8
  2190 007A6 506A          			JMP		JMP_FAIL	; -7
  2191 007A7 506A          			JMP		JMP_FAIL	; -6
  2192 007A8 506A          			JMP		JMP_FAIL	; -5
  2193 007A9 506A          			JMP		JMP_FAIL	; -4
  2194 007AA 506A          			JMP		JMP_FAIL	; -3
  2195 007AB               		IATEST3:	
  2196 007AB 2A03          			BS		Z		; -2
  2197 007AC 6BF7          			SJZ		@0xF7	; -1
  2198 007AD 506A          			JMP		JMP_FAIL
  2199 007AE 506A          			JMP		JMP_FAIL
  2200 007AF 506A          			JMP		JMP_FAIL
  2201                     
  2202 007B0 57BC          			JMP		_IPass		; -9
  2203 007B1 506A          			JMP		JMP_FAIL	; -8
  2204 007B2 506A          			JMP		JMP_FAIL	; -7
  2205 007B3 506A          			JMP		JMP_FAIL	; -6
  2206 007B4 506A          			JMP		JMP_FAIL	; -5
  2207 007B5 506A          			JMP		JMP_FAIL	; -4
  2208 007B6 506A          			JMP		JMP_FAIL	; -3
  2209 007B7               		IATEST4:	
  2210 007B7 2203          			BC		Z		; -2
  2211 007B8 6DF7          			SJNZ	@0xF7	; -1
  2212 007B9 506A          			JMP		JMP_FAIL
  2213 007BA 506A          			JMP		JMP_FAIL
  2214 007BB 506A          			JMP		JMP_FAIL
  2215 007BC               		_IPass:
  2216 007BC 0000          				NOP
  2217 007BD 0012          		RET
  2218                     
  2219 007BE               	TEST_READ_ROM:
  2220 007BE               		INST_TBLRD_R:
  2221 007BE 6028          			MOV		A,@0x28
  2222 007BF 015A          			MOV		INST,A
  2223 007C0 7A01          			SBANK	1
  2224 007C1 60F1          			MOV		A,@0xF1		;ADDR(0x0EF1)
  2225 007C2 0145          			MOV		TBPTL,A
  2226 007C3 600E          			MOV		A,@0x0E
  2227 007C4 0146          			MOV		TBPTH,A
  2228 007C5 7A00          			SBANK	0
  2229 007C6 6750          			TBRDA	0x50		; [0x50]+ A = [TABPTR] 
  2230 007C7 6CA1          			XOR		A,@0xA1
  2231 007C8 40E6          			CALL	INST_XOR_JUDGE
  2232 007C9 1050          			MOV		A,0x50
  2233 007CA 6C70          			XOR		A,@0x70
  2234 007CB 40E6          			CALL	INST_XOR_JUDGE
  2235                     
  2236 007CC 7A01          			SBANK	1
  2237                     			;MOV		A,@0xF1		;ADDR(0x0EF1)
  2238                     			;MOV		TBPTL,A
  2239                     			;MOV		A,@0x0E
  2240                     			;MOV		TBPTH,A
  2241 007CD 1545          			INC		TBPTL		;ADDR(0x0EF2)
  2242 007CE 7A00          			SBANK	0
  2243 007CF 6750          			TBRDA	0x50		; [0x50]+ A = [TABPTR] 
  2244 007D0 6CA2          			XOR		A,@0xA2
  2245 007D1 40E6          			CALL	INST_XOR_JUDGE
  2246 007D2 1050          			MOV		A,0x50
  2247 007D3 6C70          			XOR		A,@0x70
  2248 007D4 40E6          			CALL	INST_XOR_JUDGE
  2249 007D5               		INST_TBRD_R:		;-------Instruction Test => TBRD R
  2250 007D5 6033          			MOV		A,@0x33
  2251 007D6 015A          			MOV		INST,A
  2252 007D7 7A01          			SBANK	1
  2253 007D8 60F3          			MOV		A,@0xF3		;ADDR(0x0EF3)
  2254 007D9 0145          			MOV		TBPTL,A
  2255 007DA 600E          			MOV		A,@0x0E
  2256 007DB 0146          			MOV		TBPTH,A
  2257 007DC 7A00          			SBANK	0
  2258 007DD 7B50          			TBRD	0x50
  2259 007DE 1050          			MOV		A,0x50
  2260 007DF 6CA4          			XOR		A,@0xA4
  2261 007E0 40E6          			CALL	INST_XOR_JUDGE
  2262                     
  2263 007E1 7A01          			SBANK	1
  2264                     			;MOV		A,@0xF3
  2265                     			;MOV		TBPTL,A
  2266                     			;MOV		A,@0x0E
  2267                     			;MOV		TBPTH,A
  2268 007E2 1545          			INC		TBPTL		;ADDR(0x0EF4)
  2269 007E3 7A00          			SBANK	0
  2270 007E4 7B50          			TBRD	0x50
  2271 007E5 1050          			MOV		A,0x50
  2272 007E6 6CA8          			XOR		A,@0xA8
  2273 007E7 40E6          			CALL	INST_XOR_JUDGE
  2274 007E8 0012          		RET
  2275                     
  2276                     
  2277 007E9               	CALL_Test:
  2278 007E9 1550          		INC		0x50
  2279 007EA 0012          		RET
  2280                     ORG	0x800 ; ADDR(2048)
  2281 00800 506A          	JMP		JMP_FAIL
  2282 00801 506A          	JMP		JMP_FAIL
  2283 00802 506A          	JMP		JMP_FAIL
  2284                     ;================== EEPROM Test Routine =====================
  2285                     
  2286                     
  2287                     ;================== Return Table ============================
  2288                     ORG	0x0EF0	; ADDR(3824)
  2289 00EF0               	INST_RETL_TABLE:
  2290 00EF0 0F02          		ADD		PCL, A	;BackUp PC to STACK,then SEARCH TABLE By PC
  2291 00EF1 70A1          		RETL	@0xA1
  2292 00EF2 70A2          		RETL	@0xA2
  2293 00EF3 70A4          		RETL	@0xA4
  2294 00EF4 70A8          		RETL	@0xA8
  2295 00EF5 701A          		RETL	@0x1A
  2296 00EF6 702A          		RETL	@0x2A
  2297 00EF7 704A          		RETL	@0x4A
  2298 00EF8 708A          		RETL	@0x8A
  2299                     
  2300                     ;================== RAM Test Routine ========================
  2301                     ORG	0x0F00	; ADDR(3840)
  2302 00F00               	TEST_RAM_BANK_0_5:
  2303 00F00 6080          		MOV		A,@0x80		; Write Start SRAM(0x55)
  2304 00F01 0104          		MOV		RSR,A
  2305 00F02 7A40          		GBANK	0
  2306 00F03 6055          		MOV		A,@0x55
  2307 00F04 0100          		MOV		IAR,A
  2308 00F05 1504          		INC		RSR
  2309 00F06 6000          		MOV		A,@0x00
  2310 00F07 0C04          		XOR		A,RSR		; INC(0x80),UNTIL(0x00)
  2311 00F08 3A03          		JBS		Z
  2312 00F09 5F03          		JMP		$-6
  2313 00F0A 6080          		MOV		A,@0x80		; Read Start SRAM(0x55)
  2314 00F0B 0104          		MOV		RSR,A
  2315 00F0C 7A40          		GBANK	0
  2316 00F0D 6055          		MOV		A,@0x55
  2317 00F0E 0D00          		XOR		IAR,A
  2318 00F0F 3A03          		JBS		Z
  2319 00F10 5070          		JMP		RAM_FAIL
  2320 00F11 1504          		INC		RSR
  2321 00F12 6000          		MOV		A,@0x00
  2322 00F13 0C04          		XOR		A,RSR		; INC(0x80),UNTIL(0x00)
  2323 00F14 3A03          		JBS		Z
  2324 00F15 5F0D          		JMP		$-8
  2325 00F16 0012          		RET
  2326 00F17               	TEST_RAM_BANK_0_A:
  2327 00F17 6080          		MOV		A,@0x80		; Write Start SRAM(0xAA)
  2328 00F18 0104          		MOV		RSR,A
  2329 00F19 7A40          		GBANK	0
  2330 00F1A 60AA          		MOV		A,@0xAA		; SRAM(0xAA)
  2331 00F1B 0100          		MOV		IAR,A
  2332 00F1C 1504          		INC		RSR
  2333 00F1D 6000          		MOV		A,@0x00
  2334 00F1E 0C04          		XOR		A,RSR		; INC(0x80),UNTIL(0x00)
  2335 00F1F 3A03          		JBS		Z
  2336 00F20 5F1A          		JMP		$-6
  2337 00F21 6080          		MOV		A,@0x80
  2338 00F22 0104          		MOV		RSR,A
  2339 00F23 7A40          		GBANK	0
  2340 00F24 60AA          		MOV		A,@0xAA
  2341 00F25 0D00          		XOR		IAR,A
  2342 00F26 3A03          		JBS		Z
  2343 00F27 5070          		JMP		RAM_FAIL
  2344 00F28 1504          		INC		RSR
  2345 00F29 6000          		MOV		A,@0x00
  2346 00F2A 0C04          		XOR		A,RSR		; INC(0x80),UNTIL(0x00)
  2347 00F2B 3A03          		JBS		Z
  2348 00F2C 5F24          		JMP		$-8
  2349 00F2D 0012          		RET
  2350 00F2E               	TEST_RAM_BANK_1_3:
  2351 00F2E 6080          		MOV		A,@0x80		; Write Start SRAM(0x33)
  2352 00F2F 0104          		MOV		RSR,A
  2353 00F30 7A41          		GBANK	1
  2354 00F31 6033          		MOV		A,@0x33		; SRAM(0x33)
  2355 00F32 0100          		MOV		IAR,A
  2356 00F33 1504          		INC		RSR
  2357 00F34 6000          		MOV		A,@0x00
  2358 00F35 0C04          		XOR		A,RSR		; INC(0x80),UNTIL(0x00)
  2359 00F36 3A03          		JBS		Z
  2360 00F37 5F31          		JMP		$-6
  2361 00F38 6080          		MOV		A,@0x80
  2362 00F39 0104          		MOV		RSR,A
  2363 00F3A 7A41          		GBANK	1
  2364 00F3B 6033          		MOV		A,@0x33
  2365 00F3C 0D00          		XOR		IAR,A
  2366 00F3D 3A03          		JBS		Z
  2367 00F3E 5070          		JMP		RAM_FAIL
  2368 00F3F 1504          		INC		RSR
  2369 00F40 6000          		MOV		A,@0x00
  2370 00F41 0C04          		XOR		A,RSR		; INC(0x80),UNTIL(0x00)
  2371 00F42 3A03          		JBS		Z
  2372 00F43 5F3B          		JMP		$-8
  2373 00F44 0012          		RET
  2374 00F45               	TEST_RAM_BANK_1_C:
  2375 00F45 6080          		MOV		A,@0x80		; Write Start SRAM(0xCC)
  2376 00F46 0104          		MOV		RSR,A
  2377 00F47 7A41          		GBANK	1
  2378 00F48 60CC          		MOV		A,@0xCC		; SRAM(0xCC)
  2379 00F49 0100          		MOV		IAR,A
  2380 00F4A 1504          		INC		RSR
  2381 00F4B 6000          		MOV		A,@0x00
  2382 00F4C 0C04          		XOR		A,RSR		; INC(0x80),UNTIL(0x00)
  2383 00F4D 3A03          		JBS		Z
  2384 00F4E 5F48          		JMP		$-6
  2385 00F4F 6080          		MOV		A,@0x80
  2386 00F50 0104          		MOV		RSR,A
  2387 00F51 7A41          		GBANK	1
  2388 00F52 60CC          		MOV		A,@0xCC
  2389 00F53 0D00          		XOR		IAR,A
  2390 00F54 3A03          		JBS		Z
  2391 00F55 5070          		JMP		RAM_FAIL
  2392 00F56 1504          		INC		RSR
  2393 00F57 6000          		MOV		A,@0x00
  2394 00F58 0C04          		XOR		A,RSR		; INC(0x80),UNTIL(0x00)
  2395 00F59 3A03          		JBS		Z
  2396 00F5A 5F52          		JMP		$-8
  2397 00F5B 0012          		RET
  2398                     
  2399                     ;================== Long Sub Routine ========================
  2400                     ORG	0x0FFE	; >4K
  2401 00FFE               	LCALL_Test:
  2402 00FFE 1551          		INC		0x51
  2403 00FFF 0012          		RET
  0 Error(s), 1 Warning(s), 0 User Message(s)