****************************************
------------- Free ROM Size ------------
Start=0X1    , End=0X1    , Size=1
Start=0X5E4  , End=0XFFF  , Size=2588
----------------------------------------
MTF351          |        ROM Size        
----------------+-----------------------
Total           |  4096 x 16 bits(100.0%)
Used            |  1507 x 16 bits( 36.8%)
Free            |  2589 x 16 bits( 63.2%)
----------------------------------------
****************************************
The Checksum is -- 0xD11E
****************************************
--------------- ROM Code ---------------
000000: 5050  	JMP 	MAIN
000002: 558A  		JMP 	JMP_FAIL	;0x0002
000003: 558A  		JMP 	JMP_FAIL	;0x0003
000004: 558A  		JMP 	JMP_FAIL	;0x0004
000005: 558A  		JMP 	JMP_FAIL	;0x0005
000006: 558A  		JMP 	JMP_FAIL	;0x0006
000007: 558A  		JMP 	JMP_FAIL	;0x0007
000008: 558A  		JMP 	JMP_FAIL	;0x0008
000009: 558A  		JMP 	JMP_FAIL	;0x0009
00000A: 558A  		JMP 	JMP_FAIL	;0x000A
00000B: 558A  		JMP 	JMP_FAIL	;0x000B
00000C: 558A  		JMP 	JMP_FAIL	;0x000C
00000D: 558A  		JMP 	JMP_FAIL	;0x000D
00000E: 558A  		JMP 	JMP_FAIL	;0x000E
00000F: 558A  		JMP 	JMP_FAIL	;0x000F
000010: 558A  		JMP 	JMP_FAIL	;0x0010
000011: 558A  		JMP 	JMP_FAIL	;0x0011
000012: 558A  		JMP 	JMP_FAIL	;0x0012
000013: 558A  		JMP 	JMP_FAIL	;0x0013
000014: 558A  		JMP 	JMP_FAIL	;0x0014
000015: 558A  		JMP 	JMP_FAIL	;0x0015
000016: 558A  		JMP 	JMP_FAIL	;0x0016
000017: 558A  		JMP 	JMP_FAIL	;0x0017
000018: 558A  		JMP 	JMP_FAIL	;0x0018
000019: 558A  		JMP 	JMP_FAIL	;0x0019
00001A: 558A  		JMP 	JMP_FAIL	;0x001A
00001B: 558A  		JMP 	JMP_FAIL	;0x001B
00001C: 558A  		JMP 	JMP_FAIL	;0x001C
00001D: 558A  		JMP 	JMP_FAIL	;0x001D
00001E: 558A  		JMP 	JMP_FAIL	;0x001E
00001F: 558A  		JMP 	JMP_FAIL	;0x001F
000020: 558A  		JMP 	JMP_FAIL	;0x0020
000021: 558A  		JMP 	JMP_FAIL	;0x0021
000022: 558A  		JMP 	JMP_FAIL	;0x0022
000023: 558A  		JMP 	JMP_FAIL	;0x0023
000024: 558A  		JMP 	JMP_FAIL	;0x0024
000025: 558A  		JMP 	JMP_FAIL	;0x0025
000026: 558A  		JMP 	JMP_FAIL	;0x0026
000027: 558A  		JMP 	JMP_FAIL	;0x0027
000028: 558A  		JMP 	JMP_FAIL	;0x0028
000029: 558A  		JMP 	JMP_FAIL	;0x0029
00002A: 558A  		JMP 	JMP_FAIL	;0x002A
00002B: 558A  		JMP 	JMP_FAIL	;0x002B
00002C: 558A  		JMP 	JMP_FAIL	;0x002C
00002D: 558A  		JMP 	JMP_FAIL	;0x002D
00002E: 558A  		JMP 	JMP_FAIL	;0x002E
00002F: 558A  		JMP 	JMP_FAIL	;0x002F
000030: 558A  		JMP 	JMP_FAIL	;0x0030
000031: 558A  		JMP 	JMP_FAIL	;0x0031
000032: 558A  		JMP 	JMP_FAIL	;0x0032
000033: 558A  		JMP 	JMP_FAIL	;0x0033
000034: 558A  		JMP 	JMP_FAIL	;0x0034
000035: 558A  		JMP 	JMP_FAIL	;0x0035
000036: 558A  		JMP 	JMP_FAIL	;0x0036
000037: 558A  		JMP 	JMP_FAIL	;0x0037
000038: 558A  		JMP 	JMP_FAIL	;0x0038
000039: 558A  		JMP 	JMP_FAIL	;0x0039
00003A: 558A  		JMP 	JMP_FAIL	;0x003A
00003B: 558A  		JMP 	JMP_FAIL	;0x003B
00003C: 558A  		JMP 	JMP_FAIL	;0x003C
00003D: 558A  		JMP 	JMP_FAIL	;0x003D
00003E: 558A  		JMP 	JMP_FAIL	;0x003E
00003F: 558A  		JMP 	JMP_FAIL	;0x003F
000040: 558A  		JMP 	JMP_FAIL	;0x0040
000041: 558A  		JMP 	JMP_FAIL	;0x0041
000042: 558A  		JMP 	JMP_FAIL	;0x0042
000043: 558A  		JMP 	JMP_FAIL	;0x0043
000044: 558A  		JMP 	JMP_FAIL	;0x0044
000045: 558A  		JMP 	JMP_FAIL	;0x0045
000046: 558A  		JMP 	JMP_FAIL	;0x0046
000047: 558A  		JMP 	JMP_FAIL	;0x0047
000048: 558A  		JMP 	JMP_FAIL	;0x0048
000049: 558A  		JMP 	JMP_FAIL	;0x0049
00004A: 558A  		JMP 	JMP_FAIL	;0x004A
00004B: 558A  		JMP 	JMP_FAIL	;0x004B
00004C: 558A  		JMP 	JMP_FAIL	;0x004C
00004D: 558A  		JMP 	JMP_FAIL	;0x004D
00004E: 558A  		JMP 	JMP_FAIL	;0x004E
00004F: 558A  		JMP 	JMP_FAIL	;0x004F
000050: 4592  	CALL	SYS_INIT
000051: 459D  	CALL	GPIO_INIT
000052: 7A00  	SBANK	0
000053: 7A40  	GBANK	0
000054: 6000  		MOV		A,@0x00
000055: 0150  		MOV		0x50,A
000056: 0152  		MOV		0x52,A
000057: 0154  		MOV		0x54,A
000058: 0156  		MOV		0x56,A
000059: 0158  		MOV		0x58,A
00005A: 015A  		MOV		0x5A,A
00005B: 015C  		MOV		0x5C,A
00005C: 015E          MOV		0x5E,A
00005D: 60FF  		MOV		A,@0xFF
00005E: 0151          MOV		0x51,A
00005F: 0153          MOV		0x53,A
000060: 0155          MOV		0x55,A
000061: 0157          MOV		0x57,A
000062: 0159          MOV		0x59,A
000063: 015B          MOV		0x5B,A
000064: 015D  		MOV		0x5D,A
000065: 015F  		MOV		0x5F,A
000066: 6000  		MOV		A,@0x00
000067: 0160  		MOV		0x60,A
000068: 0162  		MOV		0x62,A
000069: 0164  		MOV		0x64,A
00006A: 0166  		MOV		0x66,A
00006B: 0168  		MOV		0x68,A
00006C: 016A  		MOV		0x6A,A
00006D: 016C  		MOV		0x6C,A
00006E: 016E          MOV		0x6E,A
00006F: 60FF  		MOV		A,@0xFF
000070: 0161          MOV		0x61,A
000071: 0163          MOV		0x63,A
000072: 0165          MOV		0x65,A
000073: 0167          MOV		0x67,A
000074: 0169          MOV		0x69,A
000075: 016B          MOV		0x6B,A
000076: 016D  		MOV		0x6D,A
000077: 016F  		MOV		0x6F,A
000078: 6000  		MOV		A,@0x00
000079: 0170  		MOV		0x70,A
00007A: 0172  		MOV		0x72,A
00007B: 0174  		MOV		0x74,A
00007C: 0176  		MOV		0x76,A
00007D: 0178  		MOV		0x78,A
00007E: 017A  		MOV		0x7A,A
00007F: 017C  		MOV		0x7C,A
000080: 017E          MOV		0x7E,A
000081: 60FF  		MOV		A,@0xFF
000082: 0171          MOV		0x71,A
000083: 0173          MOV		0x73,A
000084: 0175          MOV		0x75,A
000085: 0177          MOV		0x77,A
000086: 0179          MOV		0x79,A
000087: 017B          MOV		0x7B,A
000088: 017D  		MOV		0x7D,A
000089: 017F  		MOV		0x7F,A
00008A: 7A40  		GBANK	0
00008B: 6000  		MOV		A,@0x00
00008C: 0180  		MOV		0x80,A
00008D: 0182  		MOV		0x82,A
00008E: 0184  		MOV		0x84,A
00008F: 0186  		MOV		0x86,A
000090: 0188          MOV		0x88,A
000091: 018A          MOV		0x8A,A
000092: 018C          MOV		0x8C,A
000093: 018E          MOV		0x8E,A
000094: 60FF  		MOV		A,@0xFF
000095: 0181          MOV		0x81,A
000096: 0183          MOV		0x83,A
000097: 0185          MOV		0x85,A
000098: 0187          MOV		0x87,A
000099: 0189          MOV		0x89,A
00009A: 018B          MOV		0x8B,A
00009B: 018D  		MOV		0x8D,A
00009C: 018F  		MOV		0x8F,A
00009D: 6000          MOV		A,@0x00
00009E: 0190  		MOV		0x90,A
00009F: 0192  		MOV		0x92,A
0000A0: 0194  		MOV		0x94,A
0000A1: 0196  		MOV		0x96,A
0000A2: 0198          MOV		0x98,A
0000A3: 019A          MOV		0x9A,A
0000A4: 019C          MOV		0x9C,A
0000A5: 019E          MOV		0x9E,A
0000A6: 60FF  		MOV		A,@0xFF
0000A7: 0191          MOV		0x91,A
0000A8: 0193          MOV		0x93,A
0000A9: 0195          MOV		0x95,A
0000AA: 0197          MOV		0x97,A
0000AB: 0199          MOV		0x99,A
0000AC: 019B          MOV		0x9B,A
0000AD: 019D  		MOV		0x9D,A
0000AE: 019F  		MOV		0x9F,A
0000AF: 6000  		MOV		A,@0x00
0000B0: 01A0  		MOV		0xA0,A
0000B1: 01A2  		MOV		0xA2,A
0000B2: 01A4  		MOV		0xA4,A
0000B3: 01A6  		MOV		0xA6,A
0000B4: 01A8          MOV		0xA8,A
0000B5: 01AA          MOV		0xAA,A
0000B6: 01AC          MOV		0xAC,A
0000B7: 01AE          MOV		0xAE,A
0000B8: 60FF  		MOV		A,@0xFF
0000B9: 01A1          MOV		0xA1,A
0000BA: 01A3          MOV		0xA3,A
0000BB: 01A5          MOV		0xA5,A
0000BC: 01A7          MOV		0xA7,A
0000BD: 01A9          MOV		0xA9,A
0000BE: 01AB          MOV		0xAB,A
0000BF: 01AD  		MOV		0xAD,A
0000C0: 01AF  		MOV		0xAF,A
0000C1: 6000      	MOV		A,@0x00
0000C2: 01B0  		MOV		0xB0,A
0000C3: 01B2  		MOV		0xB2,A
0000C4: 01B4  		MOV		0xB4,A
0000C5: 01B6  		MOV		0xB6,A
0000C6: 01B8          MOV		0xB8,A
0000C7: 01BA          MOV		0xBA,A
0000C8: 01BC          MOV		0xBC,A
0000C9: 01BE          MOV		0xBE,A
0000CA: 60FF  		MOV		A,@0xFF
0000CB: 01B1          MOV		0xB1,A
0000CC: 01B3          MOV		0xB3,A
0000CD: 01B5          MOV		0xB5,A
0000CE: 01B7          MOV		0xB7,A
0000CF: 01B9          MOV		0xB9,A
0000D0: 01BB          MOV		0xBB,A
0000D1: 01BD  		MOV		0xBD,A
0000D2: 01BF  		MOV		0xBF,A
0000D3: 6000  		MOV		A,@0x00
0000D4: 01C0  		MOV		0xC0,A
0000D5: 01C2  		MOV		0xC2,A
0000D6: 01C4  		MOV		0xC4,A
0000D7: 01C6  		MOV		0xC6,A
0000D8: 01C8          MOV		0xC8,A
0000D9: 01CA          MOV		0xCA,A
0000DA: 01CC          MOV		0xCC,A
0000DB: 01CE          MOV		0xCE,A
0000DC: 60FF  		MOV		A,@0xFF
0000DD: 01C1          MOV		0xC1,A
0000DE: 01C3          MOV		0xC3,A
0000DF: 01C5          MOV		0xC5,A
0000E0: 01C7          MOV		0xC7,A
0000E1: 01C9          MOV		0xC9,A
0000E2: 01CB          MOV		0xCB,A
0000E3: 01CD  		MOV		0xCD,A
0000E4: 01CF  		MOV		0xCF,A
0000E5: 6000  		MOV		A,@0x00
0000E6: 01D0  		MOV		0xD0,A
0000E7: 01D2  		MOV		0xD2,A
0000E8: 01D4  		MOV		0xD4,A
0000E9: 01D6  		MOV		0xD6,A
0000EA: 01D8          MOV		0xD8,A
0000EB: 01DA          MOV		0xDA,A
0000EC: 01DC          MOV		0xDC,A
0000ED: 01DE          MOV		0xDE,A
0000EE: 60FF  		MOV		A,@0xFF
0000EF: 01D1          MOV		0xD1,A
0000F0: 01D3          MOV		0xD3,A
0000F1: 01D5          MOV		0xD5,A
0000F2: 01D7          MOV		0xD7,A
0000F3: 01D9          MOV		0xD9,A
0000F4: 01DB          MOV		0xDB,A
0000F5: 01DD  		MOV		0xDD,A
0000F6: 01DF  		MOV		0xDF,A
0000F7: 6000  		MOV		A,@0x00
0000F8: 01E0  		MOV		0xE0,A
0000F9: 01E2  		MOV		0xE2,A
0000FA: 01E4  		MOV		0xE4,A
0000FB: 01E6  		MOV		0xE6,A
0000FC: 01E8          MOV		0xE8,A
0000FD: 01EA          MOV		0xEA,A
0000FE: 01EC          MOV		0xEC,A
0000FF: 01EE          MOV		0xEE,A
000100: 60FF  		MOV		A,@0xFF
000101: 01E1          MOV		0xE1,A
000102: 01E3          MOV		0xE3,A
000103: 01E5          MOV		0xE5,A
000104: 01E7          MOV		0xE7,A
000105: 01E9          MOV		0xE9,A
000106: 01EB          MOV		0xEB,A
000107: 01ED  		MOV		0xED,A
000108: 01EF  		MOV		0xEF,A
000109: 6000  		MOV		A,@0x00
00010A: 01F0  		MOV		0xF0,A
00010B: 01F2  		MOV		0xF2,A
00010C: 01F4  		MOV		0xF4,A
00010D: 01F6  		MOV		0xF6,A
00010E: 01F8          MOV		0xF8,A
00010F: 01FA          MOV		0xFA,A
000110: 01FC          MOV		0xFC,A
000111: 01FE          MOV		0xFE,A
000112: 60FF  		MOV		A,@0xFF
000113: 01F1          MOV		0xF1,A
000114: 01F3          MOV		0xF3,A
000115: 01F5          MOV		0xF5,A
000116: 01F7          MOV		0xF7,A
000117: 01F9          MOV		0xF9,A
000118: 01FB          MOV		0xFB,A
000119: 01FD  		MOV		0xFD,A
00011A: 01FF  		MOV		0xFF,A
00011B: 7A41  		GBANK	1
00011C: 6000  		MOV		A,@0x00
00011D: 0180  		MOV		0x80,A
00011E: 0182  		MOV		0x82,A
00011F: 0184  		MOV		0x84,A
000120: 0186  		MOV		0x86,A
000121: 0188          MOV		0x88,A
000122: 018A          MOV		0x8A,A
000123: 018C          MOV		0x8C,A
000124: 018E          MOV		0x8E,A
000125: 60FF  		MOV		A,@0xFF
000126: 0181          MOV		0x81,A
000127: 0183          MOV		0x83,A
000128: 0185          MOV		0x85,A
000129: 0187          MOV		0x87,A
00012A: 0189          MOV		0x89,A
00012B: 018B          MOV		0x8B,A
00012C: 018D  		MOV		0x8D,A
00012D: 018F  		MOV		0x8F,A
00012E: 6000          MOV		A,@0x00
00012F: 0190  		MOV		0x90,A
000130: 0192  		MOV		0x92,A
000131: 0194  		MOV		0x94,A
000132: 0196  		MOV		0x96,A
000133: 0198          MOV		0x98,A
000134: 019A          MOV		0x9A,A
000135: 019C          MOV		0x9C,A
000136: 019E          MOV		0x9E,A
000137: 60FF  		MOV		A,@0xFF
000138: 0191          MOV		0x91,A
000139: 0193          MOV		0x93,A
00013A: 0195          MOV		0x95,A
00013B: 0197          MOV		0x97,A
00013C: 0199          MOV		0x99,A
00013D: 019B          MOV		0x9B,A
00013E: 019D  		MOV		0x9D,A
00013F: 019F  		MOV		0x9F,A
000140: 6000  		MOV		A,@0x00
000141: 01A0  		MOV		0xA0,A
000142: 01A2  		MOV		0xA2,A
000143: 01A4  		MOV		0xA4,A
000144: 01A6  		MOV		0xA6,A
000145: 01A8          MOV		0xA8,A
000146: 01AA          MOV		0xAA,A
000147: 01AC          MOV		0xAC,A
000148: 01AE          MOV		0xAE,A
000149: 60FF  		MOV		A,@0xFF
00014A: 01A1          MOV		0xA1,A
00014B: 01A3          MOV		0xA3,A
00014C: 01A5          MOV		0xA5,A
00014D: 01A7          MOV		0xA7,A
00014E: 01A9          MOV		0xA9,A
00014F: 01AB          MOV		0xAB,A
000150: 01AD  		MOV		0xAD,A
000151: 01AF  		MOV		0xAF,A
000152: 6000      	MOV		A,@0x00
000153: 01B0  		MOV		0xB0,A
000154: 01B2  		MOV		0xB2,A
000155: 01B4  		MOV		0xB4,A
000156: 01B6  		MOV		0xB6,A
000157: 01B8          MOV		0xB8,A
000158: 01BA          MOV		0xBA,A
000159: 01BC          MOV		0xBC,A
00015A: 01BE          MOV		0xBE,A
00015B: 60FF  		MOV		A,@0xFF
00015C: 01B1          MOV		0xB1,A
00015D: 01B3          MOV		0xB3,A
00015E: 01B5          MOV		0xB5,A
00015F: 01B7          MOV		0xB7,A
000160: 01B9          MOV		0xB9,A
000161: 01BB          MOV		0xBB,A
000162: 01BD  		MOV		0xBD,A
000163: 01BF  		MOV		0xBF,A
000164: 6000  		MOV		A,@0x00
000165: 01C0  		MOV		0xC0,A
000166: 01C2  		MOV		0xC2,A
000167: 01C4  		MOV		0xC4,A
000168: 01C6  		MOV		0xC6,A
000169: 01C8          MOV		0xC8,A
00016A: 01CA          MOV		0xCA,A
00016B: 01CC          MOV		0xCC,A
00016C: 01CE          MOV		0xCE,A
00016D: 60FF  		MOV		A,@0xFF
00016E: 01C1          MOV		0xC1,A
00016F: 01C3          MOV		0xC3,A
000170: 01C5          MOV		0xC5,A
000171: 01C7          MOV		0xC7,A
000172: 01C9          MOV		0xC9,A
000173: 01CB          MOV		0xCB,A
000174: 01CD  		MOV		0xCD,A
000175: 01CF  		MOV		0xCF,A
000176: 6000  		MOV		A,@0x00
000177: 01D0  		MOV		0xD0,A
000178: 01D2  		MOV		0xD2,A
000179: 01D4  		MOV		0xD4,A
00017A: 01D6  		MOV		0xD6,A
00017B: 01D8          MOV		0xD8,A
00017C: 01DA          MOV		0xDA,A
00017D: 01DC          MOV		0xDC,A
00017E: 01DE          MOV		0xDE,A
00017F: 60FF  		MOV		A,@0xFF
000180: 01D1          MOV		0xD1,A
000181: 01D3          MOV		0xD3,A
000182: 01D5          MOV		0xD5,A
000183: 01D7          MOV		0xD7,A
000184: 01D9          MOV		0xD9,A
000185: 01DB          MOV		0xDB,A
000186: 01DD  		MOV		0xDD,A
000187: 01DF  		MOV		0xDF,A
000188: 6000  		MOV		A,@0x00
000189: 01E0  		MOV		0xE0,A
00018A: 01E2  		MOV		0xE2,A
00018B: 01E4  		MOV		0xE4,A
00018C: 01E6  		MOV		0xE6,A
00018D: 01E8          MOV		0xE8,A
00018E: 01EA          MOV		0xEA,A
00018F: 01EC          MOV		0xEC,A
000190: 01EE          MOV		0xEE,A
000191: 60FF  		MOV		A,@0xFF
000192: 01E1          MOV		0xE1,A
000193: 01E3          MOV		0xE3,A
000194: 01E5          MOV		0xE5,A
000195: 01E7          MOV		0xE7,A
000196: 01E9          MOV		0xE9,A
000197: 01EB          MOV		0xEB,A
000198: 01ED  		MOV		0xED,A
000199: 01EF  		MOV		0xEF,A
00019A: 6000  		MOV		A,@0x00
00019B: 01F0  		MOV		0xF0,A
00019C: 01F2  		MOV		0xF2,A
00019D: 01F4  		MOV		0xF4,A
00019E: 01F6  		MOV		0xF6,A
00019F: 01F8          MOV		0xF8,A
0001A0: 01FA          MOV		0xFA,A
0001A1: 01FC          MOV		0xFC,A
0001A2: 01FE          MOV		0xFE,A
0001A3: 60FF  		MOV		A,@0xFF
0001A4: 01F1          MOV		0xF1,A
0001A5: 01F3          MOV		0xF3,A
0001A6: 01F5          MOV		0xF5,A
0001A7: 01F7          MOV		0xF7,A
0001A8: 01F9          MOV		0xF9,A
0001A9: 01FB          MOV		0xFB,A
0001AA: 01FD  		MOV		0xFD,A
0001AB: 01FF  		MOV		0xFF,A
0001AC: 1050          MOV     A,0x50
0001AD: 45D8          CALL	INST_XOR_00
0001AE: 1051          MOV     A,0x51
0001AF: 45DE          CALL	INST_XOR_FF
0001B0: 1052          MOV     A,0x52
0001B1: 45D8          CALL	INST_XOR_00
0001B2: 1053          MOV     A,0x53
0001B3: 45DE          CALL	INST_XOR_FF
0001B4: 1054          MOV     A,0x54
0001B5: 45D8          CALL	INST_XOR_00
0001B6: 1055          MOV     A,0x55
0001B7: 45DE          CALL	INST_XOR_FF
0001B8: 1056          MOV     A,0x56
0001B9: 45D8          CALL	INST_XOR_00
0001BA: 1057          MOV     A,0x57
0001BB: 45DE          CALL	INST_XOR_FF
0001BC: 1058          MOV     A,0x58
0001BD: 45D8          CALL	INST_XOR_00
0001BE: 1059          MOV     A,0x59
0001BF: 45DE          CALL	INST_XOR_FF
0001C0: 105A          MOV     A,0x5A
0001C1: 45D8          CALL	INST_XOR_00
0001C2: 105B          MOV     A,0x5B
0001C3: 45DE          CALL	INST_XOR_FF
0001C4: 105C          MOV     A,0x5C
0001C5: 45D8          CALL	INST_XOR_00
0001C6: 105D          MOV     A,0x5D
0001C7: 45DE          CALL	INST_XOR_FF
0001C8: 105E          MOV     A,0x5E
0001C9: 45D8          CALL	INST_XOR_00
0001CA: 105F          MOV     A,0x5F
0001CB: 45DE          CALL	INST_XOR_FF
0001CC: 1060          MOV     A,0x60
0001CD: 45D8          CALL	INST_XOR_00
0001CE: 1061          MOV     A,0x61
0001CF: 45DE          CALL	INST_XOR_FF
0001D0: 1062          MOV     A,0x62
0001D1: 45D8          CALL	INST_XOR_00
0001D2: 1063          MOV     A,0x63
0001D3: 45DE          CALL	INST_XOR_FF
0001D4: 1064          MOV     A,0x64
0001D5: 45D8          CALL	INST_XOR_00
0001D6: 1065          MOV     A,0x65
0001D7: 45DE          CALL	INST_XOR_FF
0001D8: 1066          MOV     A,0x66
0001D9: 45D8          CALL	INST_XOR_00
0001DA: 1067          MOV     A,0x67
0001DB: 45DE          CALL	INST_XOR_FF
0001DC: 1068          MOV     A,0x68
0001DD: 45D8          CALL	INST_XOR_00
0001DE: 1069          MOV     A,0x69
0001DF: 45DE          CALL	INST_XOR_FF
0001E0: 106A          MOV     A,0x6A
0001E1: 45D8          CALL	INST_XOR_00
0001E2: 106B          MOV     A,0x6B
0001E3: 45DE          CALL	INST_XOR_FF
0001E4: 106C          MOV     A,0x6C
0001E5: 45D8          CALL	INST_XOR_00
0001E6: 106D          MOV     A,0x6D
0001E7: 45DE          CALL	INST_XOR_FF
0001E8: 106E          MOV     A,0x6E
0001E9: 45D8          CALL	INST_XOR_00
0001EA: 106F          MOV     A,0x6F
0001EB: 45DE          CALL	INST_XOR_FF
0001EC: 1070          MOV     A,0x70
0001ED: 45D8          CALL	INST_XOR_00
0001EE: 1071          MOV     A,0x71
0001EF: 45DE          CALL	INST_XOR_FF
0001F0: 1072          MOV     A,0x72
0001F1: 45D8          CALL	INST_XOR_00
0001F2: 1073          MOV     A,0x73
0001F3: 45DE          CALL	INST_XOR_FF
0001F4: 1074          MOV     A,0x74
0001F5: 45D8          CALL	INST_XOR_00
0001F6: 1075          MOV     A,0x75
0001F7: 45DE          CALL	INST_XOR_FF
0001F8: 1076          MOV     A,0x76
0001F9: 45D8          CALL	INST_XOR_00
0001FA: 1077          MOV     A,0x77
0001FB: 45DE          CALL	INST_XOR_FF
0001FC: 1078          MOV     A,0x78
0001FD: 45D8          CALL	INST_XOR_00
0001FE: 1079          MOV     A,0x79
0001FF: 45DE          CALL	INST_XOR_FF
000200: 107A          MOV     A,0x7A
000201: 45D8          CALL	INST_XOR_00
000202: 107B          MOV     A,0x7B
000203: 45DE          CALL	INST_XOR_FF
000204: 107C          MOV     A,0x7C
000205: 45D8          CALL	INST_XOR_00
000206: 107D          MOV     A,0x7D
000207: 45DE          CALL	INST_XOR_FF
000208: 107E          MOV     A,0x7E
000209: 45D8          CALL	INST_XOR_00
00020A: 107F          MOV     A,0x7F
00020B: 45DE          CALL	INST_XOR_FF
00020C: 7A40          GBANK   0
00020D: 1080          MOV     A,0x80
00020E: 45D8          CALL	INST_XOR_00
00020F: 1081          MOV     A,0x81
000210: 45DE          CALL	INST_XOR_FF
000211: 1082          MOV     A,0x82
000212: 45D8          CALL	INST_XOR_00
000213: 1083          MOV     A,0x83
000214: 45DE          CALL	INST_XOR_FF
000215: 1084          MOV     A,0x84
000216: 45D8          CALL	INST_XOR_00
000217: 1085          MOV     A,0x85
000218: 45DE          CALL	INST_XOR_FF
000219: 1086          MOV     A,0x86
00021A: 45D8          CALL	INST_XOR_00
00021B: 1087          MOV     A,0x87
00021C: 45DE          CALL	INST_XOR_FF
00021D: 1088          MOV     A,0x88
00021E: 45D8          CALL	INST_XOR_00
00021F: 1089          MOV     A,0x89
000220: 45DE          CALL	INST_XOR_FF
000221: 108A          MOV     A,0x8A
000222: 45D8          CALL	INST_XOR_00
000223: 108B          MOV     A,0x8B
000224: 45DE          CALL	INST_XOR_FF
000225: 108C          MOV     A,0x8C
000226: 45D8          CALL	INST_XOR_00
000227: 108D          MOV     A,0x8D
000228: 45DE          CALL	INST_XOR_FF
000229: 108E          MOV     A,0x8E
00022A: 45D8          CALL	INST_XOR_00
00022B: 108F          MOV     A,0x8F
00022C: 45DE          CALL	INST_XOR_FF
00022D: 1090          MOV     A,0x90
00022E: 45D8          CALL	INST_XOR_00
00022F: 1091          MOV     A,0x91
000230: 45DE          CALL	INST_XOR_FF
000231: 1092          MOV     A,0x92
000232: 45D8          CALL	INST_XOR_00
000233: 1093          MOV     A,0x93
000234: 45DE          CALL	INST_XOR_FF
000235: 1094          MOV     A,0x94
000236: 45D8          CALL	INST_XOR_00
000237: 1095          MOV     A,0x95
000238: 45DE          CALL	INST_XOR_FF
000239: 1096          MOV     A,0x96
00023A: 45D8          CALL	INST_XOR_00
00023B: 1097          MOV     A,0x97
00023C: 45DE          CALL	INST_XOR_FF
00023D: 1098          MOV     A,0x98
00023E: 45D8          CALL	INST_XOR_00
00023F: 1099          MOV     A,0x99
000240: 45DE          CALL	INST_XOR_FF
000241: 109A          MOV     A,0x9A
000242: 45D8          CALL	INST_XOR_00
000243: 109B          MOV     A,0x9B
000244: 45DE          CALL	INST_XOR_FF
000245: 109C          MOV     A,0x9C
000246: 45D8          CALL	INST_XOR_00
000247: 109D          MOV     A,0x9D
000248: 45DE          CALL	INST_XOR_FF
000249: 109E          MOV     A,0x9E
00024A: 45D8          CALL	INST_XOR_00
00024B: 109F          MOV     A,0x9F
00024C: 45DE          CALL	INST_XOR_FF
00024D: 10A0          MOV     A,0xA0
00024E: 45D8          CALL	INST_XOR_00
00024F: 10A1          MOV     A,0xA1
000250: 45DE          CALL	INST_XOR_FF
000251: 10A2          MOV     A,0xA2
000252: 45D8          CALL	INST_XOR_00
000253: 10A3          MOV     A,0xA3
000254: 45DE          CALL	INST_XOR_FF
000255: 10A4          MOV     A,0xA4
000256: 45D8          CALL	INST_XOR_00
000257: 10A5          MOV     A,0xA5
000258: 45DE          CALL	INST_XOR_FF
000259: 10A6          MOV     A,0xA6
00025A: 45D8          CALL	INST_XOR_00
00025B: 10A7          MOV     A,0xA7
00025C: 45DE          CALL	INST_XOR_FF
00025D: 10A8          MOV     A,0xA8
00025E: 45D8          CALL	INST_XOR_00
00025F: 10A9          MOV     A,0xA9
000260: 45DE          CALL	INST_XOR_FF
000261: 10AA          MOV     A,0xAA
000262: 45D8          CALL	INST_XOR_00
000263: 10AB          MOV     A,0xAB
000264: 45DE          CALL	INST_XOR_FF
000265: 10AC          MOV     A,0xAC
000266: 45D8          CALL	INST_XOR_00
000267: 10AD          MOV     A,0xAD
000268: 45DE          CALL	INST_XOR_FF
000269: 10AE          MOV     A,0xAE
00026A: 45D8          CALL	INST_XOR_00
00026B: 10AF          MOV     A,0xAF
00026C: 45DE          CALL	INST_XOR_FF
00026D: 10B0          MOV     A,0xB0
00026E: 45D8          CALL	INST_XOR_00
00026F: 10B1          MOV     A,0xB1
000270: 45DE          CALL	INST_XOR_FF
000271: 10B2          MOV     A,0xB2
000272: 45D8          CALL	INST_XOR_00
000273: 10B3          MOV     A,0xB3
000274: 45DE          CALL	INST_XOR_FF
000275: 10B4          MOV     A,0xB4
000276: 45D8          CALL	INST_XOR_00
000277: 10B5          MOV     A,0xB5
000278: 45DE          CALL	INST_XOR_FF
000279: 10B6          MOV     A,0xB6
00027A: 45D8          CALL	INST_XOR_00
00027B: 10B7          MOV     A,0xB7
00027C: 45DE          CALL	INST_XOR_FF
00027D: 10B8          MOV     A,0xB8
00027E: 45D8          CALL	INST_XOR_00
00027F: 10B9          MOV     A,0xB9
000280: 45DE          CALL	INST_XOR_FF
000281: 10BA          MOV     A,0xBA
000282: 45D8          CALL	INST_XOR_00
000283: 10BB          MOV     A,0xBB
000284: 45DE          CALL	INST_XOR_FF
000285: 10BC          MOV     A,0xBC
000286: 45D8          CALL	INST_XOR_00
000287: 10BD          MOV     A,0xBD
000288: 45DE          CALL	INST_XOR_FF
000289: 10BE          MOV     A,0xBE
00028A: 45D8          CALL	INST_XOR_00
00028B: 10BF          MOV     A,0xBF
00028C: 45DE          CALL	INST_XOR_FF
00028D: 10C0          MOV     A,0xC0
00028E: 45D8          CALL	INST_XOR_00
00028F: 10C1          MOV     A,0xC1
000290: 45DE          CALL	INST_XOR_FF
000291: 10C2          MOV     A,0xC2
000292: 45D8          CALL	INST_XOR_00
000293: 10C3          MOV     A,0xC3
000294: 45DE          CALL	INST_XOR_FF
000295: 10C4          MOV     A,0xC4
000296: 45D8          CALL	INST_XOR_00
000297: 10C5          MOV     A,0xC5
000298: 45DE          CALL	INST_XOR_FF
000299: 10C6          MOV     A,0xC6
00029A: 45D8          CALL	INST_XOR_00
00029B: 10C7          MOV     A,0xC7
00029C: 45DE          CALL	INST_XOR_FF
00029D: 10C8          MOV     A,0xC8
00029E: 45D8          CALL	INST_XOR_00
00029F: 10C9          MOV     A,0xC9
0002A0: 45DE          CALL	INST_XOR_FF
0002A1: 10CA          MOV     A,0xCA
0002A2: 45D8          CALL	INST_XOR_00
0002A3: 10CB          MOV     A,0xCB
0002A4: 45DE          CALL	INST_XOR_FF
0002A5: 10CC          MOV     A,0xCC
0002A6: 45D8          CALL	INST_XOR_00
0002A7: 10CD          MOV     A,0xCD
0002A8: 45DE          CALL	INST_XOR_FF
0002A9: 10CE          MOV     A,0xCE
0002AA: 45D8          CALL	INST_XOR_00
0002AB: 10CF          MOV     A,0xCF
0002AC: 45DE          CALL	INST_XOR_FF
0002AD: 10D0          MOV     A,0xD0
0002AE: 45D8          CALL	INST_XOR_00
0002AF: 10D1          MOV     A,0xD1
0002B0: 45DE          CALL	INST_XOR_FF
0002B1: 10D2          MOV     A,0xD2
0002B2: 45D8          CALL	INST_XOR_00
0002B3: 10D3          MOV     A,0xD3
0002B4: 45DE          CALL	INST_XOR_FF
0002B5: 10D4          MOV     A,0xD4
0002B6: 45D8          CALL	INST_XOR_00
0002B7: 10D5          MOV     A,0xD5
0002B8: 45DE          CALL	INST_XOR_FF
0002B9: 10D6          MOV     A,0xD6
0002BA: 45D8          CALL	INST_XOR_00
0002BB: 10D7          MOV     A,0xD7
0002BC: 45DE          CALL	INST_XOR_FF
0002BD: 10D8          MOV     A,0xD8
0002BE: 45D8          CALL	INST_XOR_00
0002BF: 10D9          MOV     A,0xD9
0002C0: 45DE          CALL	INST_XOR_FF
0002C1: 10DA          MOV     A,0xDA
0002C2: 45D8          CALL	INST_XOR_00
0002C3: 10DB          MOV     A,0xDB
0002C4: 45DE          CALL	INST_XOR_FF
0002C5: 10DC          MOV     A,0xDC
0002C6: 45D8          CALL	INST_XOR_00
0002C7: 10DD          MOV     A,0xDD
0002C8: 45DE          CALL	INST_XOR_FF
0002C9: 10DE          MOV     A,0xDE
0002CA: 45D8          CALL	INST_XOR_00
0002CB: 10DF          MOV     A,0xDF
0002CC: 45DE          CALL	INST_XOR_FF
0002CD: 10E0          MOV     A,0xE0
0002CE: 45D8          CALL	INST_XOR_00
0002CF: 10E1          MOV     A,0xE1
0002D0: 45DE          CALL	INST_XOR_FF
0002D1: 10E2          MOV     A,0xE2
0002D2: 45D8          CALL	INST_XOR_00
0002D3: 10E3          MOV     A,0xE3
0002D4: 45DE          CALL	INST_XOR_FF
0002D5: 10E4          MOV     A,0xE4
0002D6: 45D8          CALL	INST_XOR_00
0002D7: 10E5          MOV     A,0xE5
0002D8: 45DE          CALL	INST_XOR_FF
0002D9: 10E6          MOV     A,0xE6
0002DA: 45D8          CALL	INST_XOR_00
0002DB: 10E7          MOV     A,0xE7
0002DC: 45DE          CALL	INST_XOR_FF
0002DD: 10E8          MOV     A,0xE8
0002DE: 45D8          CALL	INST_XOR_00
0002DF: 10E9          MOV     A,0xE9
0002E0: 45DE          CALL	INST_XOR_FF
0002E1: 10EA          MOV     A,0xEA
0002E2: 45D8          CALL	INST_XOR_00
0002E3: 10EB          MOV     A,0xEB
0002E4: 45DE          CALL	INST_XOR_FF
0002E5: 10EC          MOV     A,0xEC
0002E6: 45D8          CALL	INST_XOR_00
0002E7: 10ED          MOV     A,0xED
0002E8: 45DE          CALL	INST_XOR_FF
0002E9: 10EE          MOV     A,0xEE
0002EA: 45D8          CALL	INST_XOR_00
0002EB: 10EF          MOV     A,0xEF
0002EC: 45DE          CALL	INST_XOR_FF
0002ED: 10F0          MOV     A,0xF0
0002EE: 45D8          CALL	INST_XOR_00
0002EF: 10F1          MOV     A,0xF1
0002F0: 45DE          CALL	INST_XOR_FF
0002F1: 10F2          MOV     A,0xF2
0002F2: 45D8          CALL	INST_XOR_00
0002F3: 10F3          MOV     A,0xF3
0002F4: 45DE          CALL	INST_XOR_FF
0002F5: 10F4          MOV     A,0xF4
0002F6: 45D8          CALL	INST_XOR_00
0002F7: 10F5          MOV     A,0xF5
0002F8: 45DE          CALL	INST_XOR_FF
0002F9: 10F6          MOV     A,0xF6
0002FA: 45D8          CALL	INST_XOR_00
0002FB: 10F7          MOV     A,0xF7
0002FC: 45DE          CALL	INST_XOR_FF
0002FD: 10F8          MOV     A,0xF8
0002FE: 45D8          CALL	INST_XOR_00
0002FF: 10F9          MOV     A,0xF9
000300: 45DE          CALL	INST_XOR_FF
000301: 10FA          MOV     A,0xFA
000302: 45D8          CALL	INST_XOR_00
000303: 10FB          MOV     A,0xFB
000304: 45DE          CALL	INST_XOR_FF
000305: 10FC          MOV     A,0xFC
000306: 45D8          CALL	INST_XOR_00
000307: 10FD          MOV     A,0xFD
000308: 45DE          CALL	INST_XOR_FF
000309: 10FE          MOV     A,0xFE
00030A: 45D8          CALL	INST_XOR_00
00030B: 10FF          MOV     A,0xFF
00030C: 45DE          CALL	INST_XOR_FF
00030D: 7A41          GBANK   1
00030E: 1080          MOV     A,0x80
00030F: 45D8          CALL	INST_XOR_00
000310: 1081          MOV     A,0x81
000311: 45DE          CALL	INST_XOR_FF
000312: 1082          MOV     A,0x82
000313: 45D8          CALL	INST_XOR_00
000314: 1083          MOV     A,0x83
000315: 45DE          CALL	INST_XOR_FF
000316: 1084          MOV     A,0x84
000317: 45D8          CALL	INST_XOR_00
000318: 1085          MOV     A,0x85
000319: 45DE          CALL	INST_XOR_FF
00031A: 1086          MOV     A,0x86
00031B: 45D8          CALL	INST_XOR_00
00031C: 1087          MOV     A,0x87
00031D: 45DE          CALL	INST_XOR_FF
00031E: 1088          MOV     A,0x88
00031F: 45D8          CALL	INST_XOR_00
000320: 1089          MOV     A,0x89
000321: 45DE          CALL	INST_XOR_FF
000322: 108A          MOV     A,0x8A
000323: 45D8          CALL	INST_XOR_00
000324: 108B          MOV     A,0x8B
000325: 45DE          CALL	INST_XOR_FF
000326: 108C          MOV     A,0x8C
000327: 45D8          CALL	INST_XOR_00
000328: 108D          MOV     A,0x8D
000329: 45DE          CALL	INST_XOR_FF
00032A: 108E          MOV     A,0x8E
00032B: 45D8          CALL	INST_XOR_00
00032C: 108F          MOV     A,0x8F
00032D: 45DE          CALL	INST_XOR_FF
00032E: 1090          MOV     A,0x90
00032F: 45D8          CALL	INST_XOR_00
000330: 1091          MOV     A,0x91
000331: 45DE          CALL	INST_XOR_FF
000332: 1092          MOV     A,0x92
000333: 45D8          CALL	INST_XOR_00
000334: 1093          MOV     A,0x93
000335: 45DE          CALL	INST_XOR_FF
000336: 1094          MOV     A,0x94
000337: 45D8          CALL	INST_XOR_00
000338: 1095          MOV     A,0x95
000339: 45DE          CALL	INST_XOR_FF
00033A: 1096          MOV     A,0x96
00033B: 45D8          CALL	INST_XOR_00
00033C: 1097          MOV     A,0x97
00033D: 45DE          CALL	INST_XOR_FF
00033E: 1098          MOV     A,0x98
00033F: 45D8          CALL	INST_XOR_00
000340: 1099          MOV     A,0x99
000341: 45DE          CALL	INST_XOR_FF
000342: 109A          MOV     A,0x9A
000343: 45D8          CALL	INST_XOR_00
000344: 109B          MOV     A,0x9B
000345: 45DE          CALL	INST_XOR_FF
000346: 109C          MOV     A,0x9C
000347: 45D8          CALL	INST_XOR_00
000348: 109D          MOV     A,0x9D
000349: 45DE          CALL	INST_XOR_FF
00034A: 109E          MOV     A,0x9E
00034B: 45D8          CALL	INST_XOR_00
00034C: 109F          MOV     A,0x9F
00034D: 45DE          CALL	INST_XOR_FF
00034E: 10A0          MOV     A,0xA0
00034F: 45D8          CALL	INST_XOR_00
000350: 10A1          MOV     A,0xA1
000351: 45DE          CALL	INST_XOR_FF
000352: 10A2          MOV     A,0xA2
000353: 45D8          CALL	INST_XOR_00
000354: 10A3          MOV     A,0xA3
000355: 45DE          CALL	INST_XOR_FF
000356: 10A4          MOV     A,0xA4
000357: 45D8          CALL	INST_XOR_00
000358: 10A5          MOV     A,0xA5
000359: 45DE          CALL	INST_XOR_FF
00035A: 10A6          MOV     A,0xA6
00035B: 45D8          CALL	INST_XOR_00
00035C: 10A7          MOV     A,0xA7
00035D: 45DE          CALL	INST_XOR_FF
00035E: 10A8          MOV     A,0xA8
00035F: 45D8          CALL	INST_XOR_00
000360: 10A9          MOV     A,0xA9
000361: 45DE          CALL	INST_XOR_FF
000362: 10AA          MOV     A,0xAA
000363: 45D8          CALL	INST_XOR_00
000364: 10AB          MOV     A,0xAB
000365: 45DE          CALL	INST_XOR_FF
000366: 10AC          MOV     A,0xAC
000367: 45D8          CALL	INST_XOR_00
000368: 10AD          MOV     A,0xAD
000369: 45DE          CALL	INST_XOR_FF
00036A: 10AE          MOV     A,0xAE
00036B: 45D8          CALL	INST_XOR_00
00036C: 10AF          MOV     A,0xAF
00036D: 45DE          CALL	INST_XOR_FF
00036E: 10B0          MOV     A,0xB0
00036F: 45D8          CALL	INST_XOR_00
000370: 10B1          MOV     A,0xB1
000371: 45DE          CALL	INST_XOR_FF
000372: 10B2          MOV     A,0xB2
000373: 45D8          CALL	INST_XOR_00
000374: 10B3          MOV     A,0xB3
000375: 45DE          CALL	INST_XOR_FF
000376: 10B4          MOV     A,0xB4
000377: 45D8          CALL	INST_XOR_00
000378: 10B5          MOV     A,0xB5
000379: 45DE          CALL	INST_XOR_FF
00037A: 10B6          MOV     A,0xB6
00037B: 45D8          CALL	INST_XOR_00
00037C: 10B7          MOV     A,0xB7
00037D: 45DE          CALL	INST_XOR_FF
00037E: 10B8          MOV     A,0xB8
00037F: 45D8          CALL	INST_XOR_00
000380: 10B9          MOV     A,0xB9
000381: 45DE          CALL	INST_XOR_FF
000382: 10BA          MOV     A,0xBA
000383: 45D8          CALL	INST_XOR_00
000384: 10BB          MOV     A,0xBB
000385: 45DE          CALL	INST_XOR_FF
000386: 10BC          MOV     A,0xBC
000387: 45D8          CALL	INST_XOR_00
000388: 10BD          MOV     A,0xBD
000389: 45DE          CALL	INST_XOR_FF
00038A: 10BE          MOV     A,0xBE
00038B: 45D8          CALL	INST_XOR_00
00038C: 10BF          MOV     A,0xBF
00038D: 45DE          CALL	INST_XOR_FF
00038E: 10C0          MOV     A,0xC0
00038F: 45D8          CALL	INST_XOR_00
000390: 10C1          MOV     A,0xC1
000391: 45DE          CALL	INST_XOR_FF
000392: 10C2          MOV     A,0xC2
000393: 45D8          CALL	INST_XOR_00
000394: 10C3          MOV     A,0xC3
000395: 45DE          CALL	INST_XOR_FF
000396: 10C4          MOV     A,0xC4
000397: 45D8          CALL	INST_XOR_00
000398: 10C5          MOV     A,0xC5
000399: 45DE          CALL	INST_XOR_FF
00039A: 10C6          MOV     A,0xC6
00039B: 45D8          CALL	INST_XOR_00
00039C: 10C7          MOV     A,0xC7
00039D: 45DE          CALL	INST_XOR_FF
00039E: 10C8          MOV     A,0xC8
00039F: 45D8          CALL	INST_XOR_00
0003A0: 10C9          MOV     A,0xC9
0003A1: 45DE          CALL	INST_XOR_FF
0003A2: 10CA          MOV     A,0xCA
0003A3: 45D8          CALL	INST_XOR_00
0003A4: 10CB          MOV     A,0xCB
0003A5: 45DE          CALL	INST_XOR_FF
0003A6: 10CC          MOV     A,0xCC
0003A7: 45D8          CALL	INST_XOR_00
0003A8: 10CD          MOV     A,0xCD
0003A9: 45DE          CALL	INST_XOR_FF
0003AA: 10CE          MOV     A,0xCE
0003AB: 45D8          CALL	INST_XOR_00
0003AC: 10CF          MOV     A,0xCF
0003AD: 45DE          CALL	INST_XOR_FF
0003AE: 10D0          MOV     A,0xD0
0003AF: 45D8          CALL	INST_XOR_00
0003B0: 10D1          MOV     A,0xD1
0003B1: 45DE          CALL	INST_XOR_FF
0003B2: 10D2          MOV     A,0xD2
0003B3: 45D8          CALL	INST_XOR_00
0003B4: 10D3          MOV     A,0xD3
0003B5: 45DE          CALL	INST_XOR_FF
0003B6: 10D4          MOV     A,0xD4
0003B7: 45D8          CALL	INST_XOR_00
0003B8: 10D5          MOV     A,0xD5
0003B9: 45DE          CALL	INST_XOR_FF
0003BA: 10D6          MOV     A,0xD6
0003BB: 45D8          CALL	INST_XOR_00
0003BC: 10D7          MOV     A,0xD7
0003BD: 45DE          CALL	INST_XOR_FF
0003BE: 10D8          MOV     A,0xD8
0003BF: 45D8          CALL	INST_XOR_00
0003C0: 10D9          MOV     A,0xD9
0003C1: 45DE          CALL	INST_XOR_FF
0003C2: 10DA          MOV     A,0xDA
0003C3: 45D8          CALL	INST_XOR_00
0003C4: 10DB          MOV     A,0xDB
0003C5: 45DE          CALL	INST_XOR_FF
0003C6: 10DC          MOV     A,0xDC
0003C7: 45D8          CALL	INST_XOR_00
0003C8: 10DD          MOV     A,0xDD
0003C9: 45DE          CALL	INST_XOR_FF
0003CA: 10DE          MOV     A,0xDE
0003CB: 45D8          CALL	INST_XOR_00
0003CC: 10DF          MOV     A,0xDF
0003CD: 45DE          CALL	INST_XOR_FF
0003CE: 10E0          MOV     A,0xE0
0003CF: 45D8          CALL	INST_XOR_00
0003D0: 10E1          MOV     A,0xE1
0003D1: 45DE          CALL	INST_XOR_FF
0003D2: 10E2          MOV     A,0xE2
0003D3: 45D8          CALL	INST_XOR_00
0003D4: 10E3          MOV     A,0xE3
0003D5: 45DE          CALL	INST_XOR_FF
0003D6: 10E4          MOV     A,0xE4
0003D7: 45D8          CALL	INST_XOR_00
0003D8: 10E5          MOV     A,0xE5
0003D9: 45DE          CALL	INST_XOR_FF
0003DA: 10E6          MOV     A,0xE6
0003DB: 45D8          CALL	INST_XOR_00
0003DC: 10E7          MOV     A,0xE7
0003DD: 45DE          CALL	INST_XOR_FF
0003DE: 10E8          MOV     A,0xE8
0003DF: 45D8          CALL	INST_XOR_00
0003E0: 10E9          MOV     A,0xE9
0003E1: 45DE          CALL	INST_XOR_FF
0003E2: 10EA          MOV     A,0xEA
0003E3: 45D8          CALL	INST_XOR_00
0003E4: 10EB          MOV     A,0xEB
0003E5: 45DE          CALL	INST_XOR_FF
0003E6: 10EC          MOV     A,0xEC
0003E7: 45D8          CALL	INST_XOR_00
0003E8: 10ED          MOV     A,0xED
0003E9: 45DE          CALL	INST_XOR_FF
0003EA: 10EE          MOV     A,0xEE
0003EB: 45D8          CALL	INST_XOR_00
0003EC: 10EF          MOV     A,0xEF
0003ED: 45DE          CALL	INST_XOR_FF
0003EE: 10F0          MOV     A,0xF0
0003EF: 45D8          CALL	INST_XOR_00
0003F0: 10F1          MOV     A,0xF1
0003F1: 45DE          CALL	INST_XOR_FF
0003F2: 10F2          MOV     A,0xF2
0003F3: 45D8          CALL	INST_XOR_00
0003F4: 10F3          MOV     A,0xF3
0003F5: 45DE          CALL	INST_XOR_FF
0003F6: 10F4          MOV     A,0xF4
0003F7: 45D8          CALL	INST_XOR_00
0003F8: 10F5          MOV     A,0xF5
0003F9: 45DE          CALL	INST_XOR_FF
0003FA: 10F6          MOV     A,0xF6
0003FB: 45D8          CALL	INST_XOR_00
0003FC: 10F7          MOV     A,0xF7
0003FD: 45DE          CALL	INST_XOR_FF
0003FE: 10F8          MOV     A,0xF8
0003FF: 45D8          CALL	INST_XOR_00
000400: 10F9          MOV     A,0xF9
000401: 45DE          CALL	INST_XOR_FF
000402: 10FA          MOV     A,0xFA
000403: 45D8          CALL	INST_XOR_00
000404: 10FB          MOV     A,0xFB
000405: 45DE          CALL	INST_XOR_FF
000406: 10FC          MOV     A,0xFC
000407: 45D8          CALL	INST_XOR_00
000408: 10FD          MOV     A,0xFD
000409: 45DE          CALL	INST_XOR_FF
00040A: 10FE          MOV     A,0xFE
00040B: 45D8          CALL	INST_XOR_00
00040C: 10FF          MOV     A,0xFF
00040D: 45DE          CALL	INST_XOR_FF
00040E: 60FF  		MOV		A,@0xFF
00040F: 0150  		MOV		0x50,A
000410: 0152  		MOV		0x52,A
000411: 0154  		MOV		0x54,A
000412: 0156  		MOV		0x56,A
000413: 0158  		MOV		0x58,A
000414: 015A  		MOV		0x5A,A
000415: 015C  		MOV		0x5C,A
000416: 015E          MOV		0x5E,A
000417: 6000  		MOV		A,@0x00
000418: 0151          MOV		0x51,A
000419: 0153          MOV		0x53,A
00041A: 0155          MOV		0x55,A
00041B: 0157          MOV		0x57,A
00041C: 0159          MOV		0x59,A
00041D: 015B          MOV		0x5B,A
00041E: 015D  		MOV		0x5D,A
00041F: 015F  		MOV		0x5F,A
000420: 60FF  		MOV		A,@0xFF
000421: 0160  		MOV		0x60,A
000422: 0162  		MOV		0x62,A
000423: 0164  		MOV		0x64,A
000424: 0166  		MOV		0x66,A
000425: 0168  		MOV		0x68,A
000426: 016A  		MOV		0x6A,A
000427: 016C  		MOV		0x6C,A
000428: 016E          MOV		0x6E,A
000429: 6000  		MOV		A,@0x00
00042A: 0161          MOV		0x61,A
00042B: 0163          MOV		0x63,A
00042C: 0165          MOV		0x65,A
00042D: 0167          MOV		0x67,A
00042E: 0169          MOV		0x69,A
00042F: 016B          MOV		0x6B,A
000430: 016D  		MOV		0x6D,A
000431: 016F  		MOV		0x6F,A
000432: 60FF  		MOV		A,@0xFF
000433: 0170  		MOV		0x70,A
000434: 0172  		MOV		0x72,A
000435: 0174  		MOV		0x74,A
000436: 0176  		MOV		0x76,A
000437: 0178  		MOV		0x78,A
000438: 017A  		MOV		0x7A,A
000439: 017C  		MOV		0x7C,A
00043A: 017E          MOV		0x7E,A
00043B: 6000  		MOV		A,@0x00
00043C: 0171          MOV		0x71,A
00043D: 0173          MOV		0x73,A
00043E: 0175          MOV		0x75,A
00043F: 0177          MOV		0x77,A
000440: 0179          MOV		0x79,A
000441: 017B          MOV		0x7B,A
000442: 017D  		MOV		0x7D,A
000443: 017F  		MOV		0x7F,A
000444: 7A40  		GBANK	0
000445: 60FF  		MOV		A,@0xFF
000446: 0180  		MOV		0x80,A
000447: 0182  		MOV		0x82,A
000448: 0184  		MOV		0x84,A
000449: 0186  		MOV		0x86,A
00044A: 0188          MOV		0x88,A
00044B: 018A          MOV		0x8A,A
00044C: 018C          MOV		0x8C,A
00044D: 018E          MOV		0x8E,A
00044E: 6000  		MOV		A,@0x00
00044F: 0181          MOV		0x81,A
000450: 0183          MOV		0x83,A
000451: 0185          MOV		0x85,A
000452: 0187          MOV		0x87,A
000453: 0189          MOV		0x89,A
000454: 018B          MOV		0x8B,A
000455: 018D  		MOV		0x8D,A
000456: 018F  		MOV		0x8F,A
000457: 60FF          MOV		A,@0xFF
000458: 0190  		MOV		0x90,A
000459: 0192  		MOV		0x92,A
00045A: 0194  		MOV		0x94,A
00045B: 0196  		MOV		0x96,A
00045C: 0198          MOV		0x98,A
00045D: 019A          MOV		0x9A,A
00045E: 019C          MOV		0x9C,A
00045F: 019E          MOV		0x9E,A
000460: 6000  		MOV		A,@0x00
000461: 0191          MOV		0x91,A
000462: 0193          MOV		0x93,A
000463: 0195          MOV		0x95,A
000464: 0197          MOV		0x97,A
000465: 0199          MOV		0x99,A
000466: 019B          MOV		0x9B,A
000467: 019D  		MOV		0x9D,A
000468: 019F  		MOV		0x9F,A
000469: 60FF  		MOV		A,@0xFF
00046A: 01A0  		MOV		0xA0,A
00046B: 01A2  		MOV		0xA2,A
00046C: 01A4  		MOV		0xA4,A
00046D: 01A6  		MOV		0xA6,A
00046E: 01A8          MOV		0xA8,A
00046F: 01AA          MOV		0xAA,A
000470: 01AC          MOV		0xAC,A
000471: 01AE          MOV		0xAE,A
000472: 6000  		MOV		A,@0x00
000473: 01A1          MOV		0xA1,A
000474: 01A3          MOV		0xA3,A
000475: 01A5          MOV		0xA5,A
000476: 01A7          MOV		0xA7,A
000477: 01A9          MOV		0xA9,A
000478: 01AB          MOV		0xAB,A
000479: 01AD  		MOV		0xAD,A
00047A: 01AF  		MOV		0xAF,A
00047B: 60FF      	MOV		A,@0xFF
00047C: 01B0  		MOV		0xB0,A
00047D: 01B2  		MOV		0xB2,A
00047E: 01B4  		MOV		0xB4,A
00047F: 01B6  		MOV		0xB6,A
000480: 01B8          MOV		0xB8,A
000481: 01BA          MOV		0xBA,A
000482: 01BC          MOV		0xBC,A
000483: 01BE          MOV		0xBE,A
000484: 6000  		MOV		A,@0x00
000485: 01B1          MOV		0xB1,A
000486: 01B3          MOV		0xB3,A
000487: 01B5          MOV		0xB5,A
000488: 01B7          MOV		0xB7,A
000489: 01B9          MOV		0xB9,A
00048A: 01BB          MOV		0xBB,A
00048B: 01BD  		MOV		0xBD,A
00048C: 01BF  		MOV		0xBF,A
00048D: 60FF  		MOV		A,@0xFF
00048E: 01C0  		MOV		0xC0,A
00048F: 01C2  		MOV		0xC2,A
000490: 01C4  		MOV		0xC4,A
000491: 01C6  		MOV		0xC6,A
000492: 01C8          MOV		0xC8,A
000493: 01CA          MOV		0xCA,A
000494: 01CC          MOV		0xCC,A
000495: 01CE          MOV		0xCE,A
000496: 6000  		MOV		A,@0x00
000497: 01C1          MOV		0xC1,A
000498: 01C3          MOV		0xC3,A
000499: 01C5          MOV		0xC5,A
00049A: 01C7          MOV		0xC7,A
00049B: 01C9          MOV		0xC9,A
00049C: 01CB          MOV		0xCB,A
00049D: 01CD  		MOV		0xCD,A
00049E: 01CF  		MOV		0xCF,A
00049F: 60FF  		MOV		A,@0xFF
0004A0: 01D0  		MOV		0xD0,A
0004A1: 01D2  		MOV		0xD2,A
0004A2: 01D4  		MOV		0xD4,A
0004A3: 01D6  		MOV		0xD6,A
0004A4: 01D8          MOV		0xD8,A
0004A5: 01DA          MOV		0xDA,A
0004A6: 01DC          MOV		0xDC,A
0004A7: 01DE          MOV		0xDE,A
0004A8: 6000  		MOV		A,@0x00
0004A9: 01D1          MOV		0xD1,A
0004AA: 01D3          MOV		0xD3,A
0004AB: 01D5          MOV		0xD5,A
0004AC: 01D7          MOV		0xD7,A
0004AD: 01D9          MOV		0xD9,A
0004AE: 01DB          MOV		0xDB,A
0004AF: 01DD  		MOV		0xDD,A
0004B0: 01DF  		MOV		0xDF,A
0004B1: 60FF  		MOV		A,@0xFF
0004B2: 01E0  		MOV		0xE0,A
0004B3: 01E2  		MOV		0xE2,A
0004B4: 01E4  		MOV		0xE4,A
0004B5: 01E6  		MOV		0xE6,A
0004B6: 01E8          MOV		0xE8,A
0004B7: 01EA          MOV		0xEA,A
0004B8: 01EC          MOV		0xEC,A
0004B9: 01EE          MOV		0xEE,A
0004BA: 6000  		MOV		A,@0x00
0004BB: 01E1          MOV		0xE1,A
0004BC: 01E3          MOV		0xE3,A
0004BD: 01E5          MOV		0xE5,A
0004BE: 01E7          MOV		0xE7,A
0004BF: 01E9          MOV		0xE9,A
0004C0: 01EB          MOV		0xEB,A
0004C1: 01ED  		MOV		0xED,A
0004C2: 01EF  		MOV		0xEF,A
0004C3: 60FF  		MOV		A,@0xFF
0004C4: 01F0  		MOV		0xF0,A
0004C5: 01F2  		MOV		0xF2,A
0004C6: 01F4  		MOV		0xF4,A
0004C7: 01F6  		MOV		0xF6,A
0004C8: 01F8          MOV		0xF8,A
0004C9: 01FA          MOV		0xFA,A
0004CA: 01FC          MOV		0xFC,A
0004CB: 01FE          MOV		0xFE,A
0004CC: 6000  		MOV		A,@0x00
0004CD: 01F1          MOV		0xF1,A
0004CE: 01F3          MOV		0xF3,A
0004CF: 01F5          MOV		0xF5,A
0004D0: 01F7          MOV		0xF7,A
0004D1: 01F9          MOV		0xF9,A
0004D2: 01FB          MOV		0xFB,A
0004D3: 01FD  		MOV		0xFD,A
0004D4: 01FF  		MOV		0xFF,A
0004D5: 7A41  		GBANK	1
0004D6: 60FF  		MOV		A,@0xFF
0004D7: 0180  		MOV		0x80,A
0004D8: 0182  		MOV		0x82,A
0004D9: 0184  		MOV		0x84,A
0004DA: 0186  		MOV		0x86,A
0004DB: 0188          MOV		0x88,A
0004DC: 018A          MOV		0x8A,A
0004DD: 018C          MOV		0x8C,A
0004DE: 018E          MOV		0x8E,A
0004DF: 6000  		MOV		A,@0x00
0004E0: 0181          MOV		0x81,A
0004E1: 0183          MOV		0x83,A
0004E2: 0185          MOV		0x85,A
0004E3: 0187          MOV		0x87,A
0004E4: 0189          MOV		0x89,A
0004E5: 018B          MOV		0x8B,A
0004E6: 018D  		MOV		0x8D,A
0004E7: 018F  		MOV		0x8F,A
0004E8: 60FF          MOV		A,@0xFF
0004E9: 0190  		MOV		0x90,A
0004EA: 0192  		MOV		0x92,A
0004EB: 0194  		MOV		0x94,A
0004EC: 0196  		MOV		0x96,A
0004ED: 0198          MOV		0x98,A
0004EE: 019A          MOV		0x9A,A
0004EF: 019C          MOV		0x9C,A
0004F0: 019E          MOV		0x9E,A
0004F1: 6000  		MOV		A,@0x00
0004F2: 0191          MOV		0x91,A
0004F3: 0193          MOV		0x93,A
0004F4: 0195          MOV		0x95,A
0004F5: 0197          MOV		0x97,A
0004F6: 0199          MOV		0x99,A
0004F7: 019B          MOV		0x9B,A
0004F8: 019D  		MOV		0x9D,A
0004F9: 019F  		MOV		0x9F,A
0004FA: 60FF  		MOV		A,@0xFF
0004FB: 01A0  		MOV		0xA0,A
0004FC: 01A2  		MOV		0xA2,A
0004FD: 01A4  		MOV		0xA4,A
0004FE: 01A6  		MOV		0xA6,A
0004FF: 01A8          MOV		0xA8,A
000500: 01AA          MOV		0xAA,A
000501: 01AC          MOV		0xAC,A
000502: 01AE          MOV		0xAE,A
000503: 6000  		MOV		A,@0x00
000504: 01A1          MOV		0xA1,A
000505: 01A3          MOV		0xA3,A
000506: 01A5          MOV		0xA5,A
000507: 01A7          MOV		0xA7,A
000508: 01A9          MOV		0xA9,A
000509: 01AB          MOV		0xAB,A
00050A: 01AD  		MOV		0xAD,A
00050B: 01AF  		MOV		0xAF,A
00050C: 60FF      	MOV		A,@0xFF
00050D: 01B0  		MOV		0xB0,A
00050E: 01B2  		MOV		0xB2,A
00050F: 01B4  		MOV		0xB4,A
000510: 01B6  		MOV		0xB6,A
000511: 01B8          MOV		0xB8,A
000512: 01BA          MOV		0xBA,A
000513: 01BC          MOV		0xBC,A
000514: 01BE          MOV		0xBE,A
000515: 6000  		MOV		A,@0x00
000516: 01B1          MOV		0xB1,A
000517: 01B3          MOV		0xB3,A
000518: 01B5          MOV		0xB5,A
000519: 01B7          MOV		0xB7,A
00051A: 01B9          MOV		0xB9,A
00051B: 01BB          MOV		0xBB,A
00051C: 01BD  		MOV		0xBD,A
00051D: 01BF  		MOV		0xBF,A
00051E: 60FF  		MOV		A,@0xFF
00051F: 01C0  		MOV		0xC0,A
000520: 01C2  		MOV		0xC2,A
000521: 01C4  		MOV		0xC4,A
000522: 01C6  		MOV		0xC6,A
000523: 01C8          MOV		0xC8,A
000524: 01CA          MOV		0xCA,A
000525: 01CC          MOV		0xCC,A
000526: 01CE          MOV		0xCE,A
000527: 6000  		MOV		A,@0x00
000528: 01C1          MOV		0xC1,A
000529: 01C3          MOV		0xC3,A
00052A: 01C5          MOV		0xC5,A
00052B: 01C7          MOV		0xC7,A
00052C: 01C9          MOV		0xC9,A
00052D: 01CB          MOV		0xCB,A
00052E: 01CD  		MOV		0xCD,A
00052F: 01CF  		MOV		0xCF,A
000530: 60FF  		MOV		A,@0xFF
000531: 01D0  		MOV		0xD0,A
000532: 01D2  		MOV		0xD2,A
000533: 01D4  		MOV		0xD4,A
000534: 01D6  		MOV		0xD6,A
000535: 01D8          MOV		0xD8,A
000536: 01DA          MOV		0xDA,A
000537: 01DC          MOV		0xDC,A
000538: 01DE          MOV		0xDE,A
000539: 6000  		MOV		A,@0x00
00053A: 01D1          MOV		0xD1,A
00053B: 01D3          MOV		0xD3,A
00053C: 01D5          MOV		0xD5,A
00053D: 01D7          MOV		0xD7,A
00053E: 01D9          MOV		0xD9,A
00053F: 01DB          MOV		0xDB,A
000540: 01DD  		MOV		0xDD,A
000541: 01DF  		MOV		0xDF,A
000542: 60FF  		MOV		A,@0xFF
000543: 01E0  		MOV		0xE0,A
000544: 01E2  		MOV		0xE2,A
000545: 01E4  		MOV		0xE4,A
000546: 01E6  		MOV		0xE6,A
000547: 01E8          MOV		0xE8,A
000548: 01EA          MOV		0xEA,A
000549: 01EC          MOV		0xEC,A
00054A: 01EE          MOV		0xEE,A
00054B: 6000  		MOV		A,@0x00
00054C: 01E1          MOV		0xE1,A
00054D: 01E3          MOV		0xE3,A
00054E: 01E5          MOV		0xE5,A
00054F: 01E7          MOV		0xE7,A
000550: 01E9          MOV		0xE9,A
000551: 01EB          MOV		0xEB,A
000552: 01ED  		MOV		0xED,A
000553: 01EF  		MOV		0xEF,A
000554: 60FF  		MOV		A,@0xFF
000555: 01F0  		MOV		0xF0,A
000556: 01F2  		MOV		0xF2,A
000557: 01F4  		MOV		0xF4,A
000558: 01F6  		MOV		0xF6,A
000559: 01F8          MOV		0xF8,A
00055A: 01FA          MOV		0xFA,A
00055B: 01FC          MOV		0xFC,A
00055C: 01FE          MOV		0xFE,A
00055D: 6000  		MOV		A,@0x00
00055E: 01F1          MOV		0xF1,A
00055F: 01F3          MOV		0xF3,A
000560: 01F5          MOV		0xF5,A
000561: 01F7          MOV		0xF7,A
000562: 01F9          MOV		0xF9,A
000563: 01FB          MOV		0xFB,A
000564: 01FD  		MOV		0xFD,A
000565: 01FF  		MOV		0xFF,A
000566: 1050          MOV     A,0x50
000567: 45DE          CALL	INST_XOR_FF
000568: 1051          MOV     A,0x51
000569: 45D8          CALL	INST_XOR_00
00056A: 1052          MOV     A,0x52
00056B: 45DE          CALL	INST_XOR_FF
00056C: 1053          MOV     A,0x53
00056D: 45D8          CALL	INST_XOR_00
00056E: 1054          MOV     A,0x54
00056F: 45DE          CALL	INST_XOR_FF
000570: 1055          MOV     A,0x55
000571: 45D8          CALL	INST_XOR_00
000572: 1056          MOV     A,0x56
000573: 45DE          CALL	INST_XOR_FF
000574: 1057          MOV     A,0x57
000575: 45D8          CALL	INST_XOR_00
000576: 1058          MOV     A,0x58
000577: 45DE          CALL	INST_XOR_FF
000578: 1059          MOV     A,0x59
000579: 45D8          CALL	INST_XOR_00
00057A: 105A          MOV     A,0x5A
00057B: 45DE          CALL	INST_XOR_FF
00057C: 105B          MOV     A,0x5B
00057D: 45D8          CALL	INST_XOR_00
00057E: 105C          MOV     A,0x5C
00057F: 45DE          CALL	INST_XOR_FF
000580: 105D          MOV     A,0x5D
000581: 45D8          CALL	INST_XOR_00
000582: 105E          MOV     A,0x5E
000583: 45DE          CALL	INST_XOR_FF
000584: 105F          MOV     A,0x5F
000585: 45D8          CALL	INST_XOR_00
000586: 0000  	NOP
000587: 2B05  	BS		P5,3
000588: 2205  	BC		P5,2
000589: 5052  	JMP		BACK_GROUND_LOOP
00058A: 7A00  	SBANK	0
00058B: 558A  	JMP		JMP_FAIL
00058C: 7A00  	SBANK	0
00058D: 2305  	BC		P5,3
00058E: 2A05  	BS		P5,2
00058F: 558C  	JMP		RAM_FAIL
000590: 7A00  	SBANK	0	
000591: 5590  	JMP		INS_FAIL
000592: 7A00  		SBANK	0
000593: 260E  		BC		IDLE	;SLEEP_MODE
000594: 6000  		MOV		A,@0x00
000595: 0114  		MOV		SFR1,A
000596: 0117  		MOV		SFR4,A
000597: 0119  		MOV		SFR6,A
000598: 7A03  		SBANK	3
000599: 6000  		MOV		A,@0x00
00059A: 014C  		MOV		SFR9,A
00059B: 014D  		MOV		SFR10,A
00059C: 0012  		RET
00059D: 7A00  		SBANK	0
00059E: 0305  		CLR		P5
00059F: 60E0  		MOV		A,@0xE0
0005A0: 010B  		MOV		IOCR5,A
0005A1: 60FF  		MOV		A,@0xFF	;Turn-Off LED (Active-Low)
0005A2: 0105  		MOV		P5,A
0005A3: 0012  		RET
0005A4: 6050  		MOV		A,@0x50
0005A5: 0104  		MOV		RSR,A
0005A6: 60FF  		MOV		A,@0xFF		;RAM_SHA_LOOP
0005A7: 0100  		MOV		IAR,A
0005A8: 1504  		INC		RSR
0005A9: 6080  		MOV		A,@0x80
0005AA: 0C04  		XOR		A,RSR
0005AB: 3A03  		JBS		Z
0005AC: 55A6  		JMP		$-6
0005AD: 6050  		MOV		A,@0x50
0005AE: 0104  		MOV		RSR,A
0005AF: 60FF  		MOV		A,@0xFF
0005B0: 0C00  		XOR		A,IAR
0005B1: 3A03  		JBS		Z
0005B2: 558C  		JMP		RAM_FAIL
0005B3: 1504  		INC		RSR
0005B4: 6080  		MOV		A,@0x80
0005B5: 0C04  		XOR		A,RSR
0005B6: 3A03  		JBS		Z
0005B7: 55AF  		JMP		$-8
0005B8: 0012  		RET
0005B9: 6080  		MOV		A,@0x80
0005BA: 0104  		MOV		RSR,A
0005BB: 7A40  		GBANK	0
0005BC: 60FF  		MOV		A,@0xFF
0005BD: 0100  		MOV		IAR,A
0005BE: 1504  		INC		RSR
0005BF: 6000  		MOV		A,@0x00
0005C0: 0C04  		XOR		A,RSR
0005C1: 3A03  		JBS		Z
0005C2: 55BB  		JMP		RAM_IND_LOOP_0
0005C3: 6080  		MOV		A,@0x80
0005C4: 0104  		MOV		RSR,A
0005C5: 7A41  		GBANK	1
0005C6: 60FF  		MOV		A,@0xFF
0005C7: 0100  		MOV		IAR,A
0005C8: 1504  		INC		RSR
0005C9: 6000  		MOV		A,@0x00
0005CA: 0C04  		XOR		A,RSR
0005CB: 3A03  		JBS		Z
0005CC: 55C5  		JMP		RAM_IND_LOOP_1
0005CD: 6080  		MOV		A,@0x80
0005CE: 0104  		MOV		RSR,A
0005CF: 0012  		RET
0005D0: 6000  		MOV		A,@0x00
0005D1: 0103  		MOV		STATUS,A
0005D2: 0012  		RET
0005D3: 3A03  		JBS		Z			; IF(Z=1) BRANCH
0005D4: 5590  		JMP		INS_FAIL
0005D5: 3603  		JBC		N			; IF(N=0) BRANCH
0005D6: 5590  		JMP		INS_FAIL
0005D7: 0012  		RET
0005D8: 6C00  		XOR		A,@0x00
0005D9: 3A03  		JBS		Z			; IF(Z=1) BRANCH
0005DA: 558C  		JMP		RAM_FAIL
0005DB: 3603  		JBC		N			; IF(N=0) BRANCH
0005DC: 558C  		JMP		RAM_FAIL
0005DD: 0012  		RET
0005DE: 6CFF  		XOR		A,@0xFF
0005DF: 3A03  		JBS		Z			; IF(Z=1) BRANCH
0005E0: 558C  		JMP		RAM_FAIL
0005E1: 3603  		JBC		N			; IF(N=0) BRANCH
0005E2: 558C  		JMP		RAM_FAIL
0005E3: 0012  		RET
