****************************************
------------- Free ROM Size ------------
Start=0X1    , End=0X1    , Size=1
Start=0X3    , End=0X3    , Size=1
Start=0X5    , End=0X9    , Size=5
Start=0XB    , End=0XD    , Size=3
Start=0XF    , End=0XF    , Size=1
Start=0X11   , End=0X13   , Size=3
Start=0X15   , End=0X15   , Size=1
Start=0X17   , End=0X17   , Size=1
Start=0X19   , End=0X23   , Size=11
Start=0X25   , End=0X25   , Size=1
Start=0X27   , End=0X29   , Size=3
Start=0X2B   , End=0X2B   , Size=1
Start=0X2D   , End=0X39   , Size=13
Start=0X3B   , End=0X3B   , Size=1
Start=0X3D   , End=0X3D   , Size=1
Start=0X3F   , End=0X3F   , Size=1
Start=0X41   , End=0X41   , Size=1
Start=0X43   , End=0X43   , Size=1
Start=0X4F   , End=0X4F   , Size=1
Start=0XD4   , End=0X17FF , Size=5932
----------------------------------------
SD062           |        ROM Size        
----------------+-----------------------
Total           |  6144 x 15 bits(100.0%)
Used            |   161 x 15 bits(  2.6%)
Free            |  5983 x 15 bits( 97.4%)
----------------------------------------
****************************************
The Checksum is -- 0x249E
****************************************
--------------- ROM Code ---------------
000000: 5050  	JMP 	MAIN
000002: 5095  		JMP	_Int_EXINT
000004: 5099  		JMP	_Int_ICINT
00000A: 509C  		JMP	_Int_CMP1INT
00000E: 50A1  		JMP	_Int_CMP2INT
000010: 50A6  		JMP	_Int_ADINT
000014: 50AB  		JMP	_Int_PWMPAINT
000016: 50AD  		JMP	_Int_PWMDAINT
000018: 50AF  		JMP	_Int_CMP3INT
000024: 50B4  		JMP	_Int_PWMPBINT
000026: 50B6  		JMP	_Int_PWMDBINT
00002A: 50B8  		JMP	_Int_PWMPCINT
00002C: 50BA  		JMP	_Int_PWMDCINT
00003A: 50BC  		JMP	_Int_SHINT
00003C: 50C1  		JMP	_Int_TM1INT
00003E: 50C5  		JMP	_Int_TM2INT
000040: 50C9  		JMP	_Int_TM1OFINT
000042: 50CE  		JMP	_Int_TXTMINT
000044: 50D2  		JMP	_Int_AFPWMINT
000045: 5093  	JMP JMP_FAIL	;0x0046
000046: 5093  	JMP JMP_FAIL	;0x0047
000047: 5093  	JMP JMP_FAIL	;0x0048
000048: 5093  	JMP JMP_FAIL	;0x0049
000049: 5093  	JMP JMP_FAIL	;0x004A
00004A: 5093  	JMP JMP_FAIL	;0x004B
00004B: 5093  	JMP JMP_FAIL	;0x004C
00004C: 5093  	JMP JMP_FAIL	;0x004D
00004D: 5093  	JMP JMP_FAIL	;0x004E
00004E: 5093  	JMP JMP_FAIL	;0x004F
000050: 7A00  	SDxxx_SYS_INIT
000051: 2F0E      BS		CPUS
000052: 2E0E      BS		IDLE
000053: 7A00  	SDxxx_GPIO_INIT
000054: 0305  	CLR		P5
000055: 600F  	MOV		A,@0x0F
000056: 010B  	MOV		IOCR5,A
000057: 6000  	SDxxx_EFT_TES_JMP
000058: 0103          MOV		STATUS,A
000059: 0350          CLR 	0x50
00005A: 1550          INC 	0x50                ;[0x50] = 0x01
00005B: 505D          JMP 	JP1
00005C: 5093          JMP 	JMP_FAIL
00005D: 1550          INC 	0x50                ;[0x50] = 0x02
00005E: 5060          JMP 	JP2
00005F: 5093          JMP 	JMP_FAIL
000060: 1550          INC 	0x50                ;[0x50] = 0x03
000061: 5063          JMP 	JP3
000062: 5093          JMP 	JMP_FAIL
000063: 1550          INC 	0x50                ;[0x50] = 0x04
000064: 5066          JMP 	JP4
000065: 5093          JMP 	JMP_FAIL
000066: 1550          INC 	0x50                ;[0x50] = 0x05
000067: 5069          JMP 	JP5
000068: 5093          JMP 	JMP_FAIL
000069: 1550          INC 	0x50                ;[0x50] = 0x06
00006A: 506C          JMP 	JP6
00006B: 5093          JMP 	JMP_FAIL
00006C: 1550          INC 	0x50                ;[0x50] = 0x07
00006D: 506F          JMP 	JP7
00006E: 5093          JMP 	JMP_FAIL
00006F: 1550          INC 	0x50                ;[0x50] = 0x08
000070: 5072          JMP 	JP8
000071: 5093          JMP 	JMP_FAIL
000072: 1550          INC 	0x50                ;[0x50] = 0x09
000073: 5075          JMP 	JP9
000074: 5093          JMP 	JMP_FAIL
000075: 1550          INC 	0x50                ;[0x50] = 0x0A
000076: 5078          JMP 	JPA
000077: 5093          JMP 	JMP_FAIL
000078: 1550          INC 	0x50                ;[0x50] = 0x0B
000079: 507B          JMP 	JPB
00007A: 5093          JMP 	JMP_FAIL
00007B: 1550          INC 	0x50                ;[0x50] = 0x0C
00007C: 507E          JMP 	JPC
00007D: 5093          JMP 	JMP_FAIL
00007E: 1550          INC 	0x50                ;[0x50] = 0x0D
00007F: 5081          JMP 	JPD
000080: 5093          JMP 	JMP_FAIL
000081: 1550          INC 	0x50                ;[0x50] = 0x0E
000082: 5084          JMP 	JPE
000083: 5093          JMP 	JMP_FAIL
000084: 1550          INC 	0x50                ;[0x50] = 0x0F
000085: 5087          JMP 	JPF
000086: 5093          JMP 	JMP_FAIL
000087: 1550          INC 	0x50
000088: 508A          JMP 	JP10                ;[0x50] = 0x10
000089: 5093          JMP 	JMP_FAIL
00008A: 6010          MOV 	A,@0x10
00008B: 0D50          XOR 	0x50,A				;[0x50] = 0x10 ?
00008C: 3A03          JBS		Z			; Check Z = 1?
00008D: 5093          JMP	JMP_FAIL
00008E: 3603          JBC		N			; Check N = 0?
00008F: 5093          JMP	JMP_FAIL
000090: 7A00  	SBANK	0
000091: 0000  	NOP
000092: 5090  	JMP		BACK_GROUND_LOOP
000093: 7A00  	SBANK	0
000094: 5093  	JMP		JMP_FAIL
000095: 7A00  		SBANK	0
000096: 2214  		BC		EXSF0
000097: 2314  		BC		EXSF1
000098: 0013  		RETI
000099: 7A00  		SBANK	0
00009A: 2417  		BC		P5ICSF
00009B: 0013  		RETI
00009C: 7A00  		SBANK	0
00009D: 3E14  		JBS 	CMP1SF
00009E: 5093  		JMP 	JMP_FAIL
00009F: 2614  		BC		CMP1SF
0000A0: 0013  		RETI
0000A1: 7A00  		SBANK	0
0000A2: 3F14  		JBS 	CMP2SF
0000A3: 5093  		JMP 	JMP_FAIL
0000A4: 2714  		BC		CMP2SF
0000A5: 0013  		RETI
0000A6: 7A00  		SBANK	0
0000A7: 3C14  		JBS 	ADSF
0000A8: 5093  		JMP 	JMP_FAIL
0000A9: 2414  		BC		ADSF
0000AA: 0013  		RETI
0000AB: 7A00  		SBANK	0
0000AC: 0013  		RETI
0000AD: 7A00  		SBANK	0
0000AE: 0013  		RETI
0000AF: 7A00  		SBANK	0
0000B0: 3E15  		JBS 	CMP3SF
0000B1: 5093  		JMP 	JMP_FAIL
0000B2: 2615  		BC		CMP3SF
0000B3: 0013  		RETI
0000B4: 7A00  		SBANK	0
0000B5: 0013  		RETI
0000B6: 7A00  		SBANK	0
0000B7: 0013  		RETI
0000B8: 7A00  		SBANK	0
0000B9: 0013  		RETI
0000BA: 7A00  		SBANK	0
0000BB: 0013  		RETI
0000BC: 7A00  		SBANK	0
0000BD: 3F19  		JBS 	SHSF
0000BE: 5093  		JMP 	JMP_FAIL
0000BF: 2719  		BC		SHSF
0000C0: 0013  		RETI
0000C1: 7A00  		SBANK	0
0000C2: 231A  		BC		TM1DASF
0000C3: 201A  		BC		TM1DBSF
0000C4: 0013  		RETI
0000C5: 7A00  		SBANK	0
0000C6: 241A  		BC		TM2DASF
0000C7: 211A  		BC		TM2DBSF
0000C8: 0013  		RETI
0000C9: 7A00  		SBANK	0
0000CA: 3A1A  		JBS 	TM1OFSF
0000CB: 5093  		JMP 	JMP_FAIL
0000CC: 221A  		BC		TM1OFSF
0000CD: 0013  		RETI
0000CE: 7A00  		SBANK	0
0000CF: 261A  		BC		TXDSF
0000D0: 251A  		BC		TXCSF
0000D1: 0013  		RETI
0000D2: 7A00  		SBANK	0
0000D3: 0013  		RETI
