     1                     ;============================================================
     2                     ;	Project:		SD028_ASM_TEMP
     3                     ;	FILE:			SD028_ASM_TEMP.asm
     4                     ;  	Target:  		SD028
     5                     ;	Author:			Arthur (Lu Hungche)
     6                     ;	Date:			2020/03/11
     7                     ;------------------------------------------------------------
     8                     ;	Description:	For SD028 Instruction and EFT Verify
     9                     ;	Active-Low: P50(Red-PWR)„ÄÅP51(Yel-PUSH)„ÄÅ
    10                     ;					
    11                     ;------------------------------------------------------------
    12                     ; History:
    13                     ; Ver  | dd-mmm-yyyy |  Who  | Description of changes
    14                     ; =====|=============|=======|===============================
    15                     ;  0.1 | 11 Mat 2020 |Arthur | Original Release.
    16                     ; -----|-------------|-------|-------------------------------
    17                     ;  0.2 |
    18                     ; -----|-------------|-------|-------------------------------
    19                     ;============================================================
    20                     
    21                     ;==================== Project Include ====================
    22       0001          TARGET	VAR	1
    23                     
    24                     IF	(TARGET == 1)
    25                     	Include	"SD062.INC"
     1            C        /****************************************************************************
     2            C         *  Title:       SD062 include file                                        *
     3            C         *  Target MCU:  SD062                                                     *
     4            C         *  Description: Register/bit definitions                                   *
     5            C         *  Company:     ELAN LTD.                            *
     6            C         *  Date:        2019-2-21                                                  *
     7            C         *  Version:     v1.0                                                       *
     8            C         ****************************************************************************/
     9            C        ;======================================================;
    10            C        ; Operational Registers Define                         ;
    11            C        ;======================================================;
    12       0000 C        BIT0    ==  0
    13       0001 C        BIT1    ==  1
    14       0002 C        BIT2    ==  2
    15       0003 C        BIT3    ==  3
    16       0004 C        BIT4    ==  4
    17       0005 C        BIT5    ==  5
    18       0006 C        BIT6    ==  6
    19       0007 C        BIT7    ==  7
    20            C        ;======================================================;
    21            C        ; Registers R0~R4                                      ;
    22            C        ;======================================================;
    23            C        ;The general purpose registers
    24            C        ; R0/IAR: Indirect Address Register
    25       2000 C        R0          ==  0X00:rpage 0
    25 00000 0010 C        R0          ==  0X00:rpage 0
    26       2000 C        IAR         ==  0x00:rpage 0
    26 00000 0010 C        IAR         ==  0x00:rpage 0
    27            C        ;R1/ BSR: Bank Selection Control Register
    28       2001 C        R1          ==  0x01:rpage 0
    28 00000 0010 C        R1          ==  0x01:rpage 0
    29       2001 C        BSR         ==  0X01:rpage 0
    29 00000 0010 C        BSR         ==  0X01:rpage 0
    30       2001 C                SBS1  ==  BSR.5
    30 00000 0540 C                SBS1  ==  BSR.5
    31       2001 C                SBS0  ==  BSR.4
    31 00000 0440 C                SBS0  ==  BSR.4
    32       2001 C                GBS0  ==  BSR.0
    32 00000 0040 C                GBS0  ==  BSR.0
    33            C        ; R2/PC: Program Counter & Stack
    34       2002 C        R2          ==  0X02:rpage 0       ; Program Counter.
    34 00000 0010 C        R2          ==  0X02:rpage 0       ; Program Counter.
    35       2002 C        PCL         ==  0X02:rpage 0       ;
    35 00000 0010 C        PCL         ==  0X02:rpage 0       ;
    36            C        
    37            C        ;R3/SW:Status Register
    38       2003 C        R3          ==  0X03:rpage 0
    38 00000 0010 C        R3          ==  0X03:rpage 0
    39       2003 C        STATUS      ==  0X03:rpage 0
    39 00000 0010 C        STATUS      ==  0X03:rpage 0
    40       2003 C        SR          ==  0X03:rpage 0
    40 00000 0010 C        SR          ==  0X03:rpage 0
    41       2003 C               	IT        == SR.7
    41 00000 0740 C               	IT        == SR.7
    42       2003 C                N           == SR.6
    42 00000 0640 C                N           == SR.6
    43       2003 C                OV          == SR.5
    43 00000 0540 C                OV          == SR.5
    44       2003 C                T           == SR.4
    44 00000 0440 C                T           == SR.4
    45       2003 C                P           == SR.3
    45 00000 0340 C                P           == SR.3
    46       2003 C                Z           == SR.2
    46 00000 0240 C                Z           == SR.2
    47       2003 C                DC          == SR.1
    47 00000 0140 C                DC          == SR.1
    48       2003 C                C           == SR.0
    48 00000 0040 C                C           == SR.0
    49            C        ;R4/ RSR:RAM Select Register
    50       2004 C        R4          ==  0X04:rpage 0
    50 00000 0010 C        R4          ==  0X04:rpage 0
    51       2004 C        RSR         ==  0X04:rpage 0       ; File Select Register.
    51 00000 0010 C        RSR         ==  0X04:rpage 0       ; File Select Register.
    52            C        ;======================================================
    53            C        ;      BANK 0
    54            C        ;Registers R5~R4F
    55            C        ;======================================================
    56       2005 C        PORT5       ==  0X05:rpage 0        ; I/O Port Address
    56 00000 0010 C        PORT5       ==  0X05:rpage 0        ; I/O Port Address
    57       2005 C        P5       ==  0X05:rpage 0        ; I/O Port Address
    57 00000 0010 C        P5       ==  0X05:rpage 0        ; I/O Port Address
    58       2005 C                P50         ==  PORT5.0
    58 00000 0040 C                P50         ==  PORT5.0
    59       2005 C                P51         ==  PORT5.1
    59 00000 0140 C                P51         ==  PORT5.1
    60       2005 C                P52         ==  PORT5.2
    60 00000 0240 C                P52         ==  PORT5.2
    61       2005 C                P53         ==  PORT5.3
    61 00000 0340 C                P53         ==  PORT5.3
    62       2005 C                P54         ==  PORT5.4
    62 00000 0440 C                P54         ==  PORT5.4
    63       2005 C                P55         ==  PORT5.5
    63 00000 0540 C                P55         ==  PORT5.5
    64       2005 C                P56         ==  PORT5.6
    64 00000 0640 C                P56         ==  PORT5.6
    65       2005 C                P57         ==  PORT5.7
    65 00000 0740 C                P57         ==  PORT5.7
    66       2006 C        PORT6       ==  0X06:rpage 0        ; I/O Port Address
    66 00000 0010 C        PORT6       ==  0X06:rpage 0        ; I/O Port Address
    67       2006 C        P6       ==  0X06:rpage 0        ; I/O Port Address
    67 00000 0010 C        P6       ==  0X06:rpage 0        ; I/O Port Address
    68       2006 C                P60         ==  PORT6.0
    68 00000 0040 C                P60         ==  PORT6.0
    69       2006 C                P61         ==  PORT6.1
    69 00000 0140 C                P61         ==  PORT6.1
    70       2006 C                P62         ==  PORT6.2
    70 00000 0240 C                P62         ==  PORT6.2
    71            C                
    72       200B C        IOCR5       ==  0X0B:rpage 0        ; IO PORT 5 Control Register
    72 00000 0010 C        IOCR5       ==  0X0B:rpage 0        ; IO PORT 5 Control Register
    73       200C C        IOCR6       ==  0X0C:rpage 0        ; IO PORT 6 Control Register
    73 00000 0010 C        IOCR6       ==  0X0C:rpage 0        ; IO PORT 6 Control Register
    74            C        ;RE/OMCR :OMCR:Operating Mode Control Register
    75       200E C        OMCR        ==  0X0E:rpage 0
    75 00000 0010 C        OMCR        ==  0X0E:rpage 0
    76       200E C                CPUS        ==  OMCR.7
    76 00000 0740 C                CPUS        ==  OMCR.7
    77       200E C                IDLE        ==  OMCR.6
    77 00000 0640 C                IDLE        ==  OMCR.6
    78       200E C                PERCS       ==  OMCR.5
    78 00000 0540 C                PERCS       ==  OMCR.5
    79       200E C                IIPS        ==  OMCR.4
    79 00000 0440 C                IIPS        ==  OMCR.4
    80       200E C                FMSF        ==  OMCR.3
    80 00000 0340 C                FMSF        ==  OMCR.3
    81       200E C                RCM2		==  OMCR.2
    81 00000 0240 C                RCM2		==  OMCR.2
    82       200E C        		RCM1        ==  OMCR.1
    82 00000 0140 C        		RCM1        ==  OMCR.1
    83       200E C                RCM0        ==  OMCR.0
    83 00000 0040 C                RCM0        ==  OMCR.0
    84            C        ;RF/EIESCR :External Interrupt Edge Select Control Register
    85       200F C        EIESCR      ==  0X0F:rpage 0
    85 00000 0010 C        EIESCR      ==  0X0F:rpage 0
    86       200F C                EIES11 == EIESCR.3
    86 00000 0340 C                EIES11 == EIESCR.3
    87       200F C        		EIES10 == EIESCR.2
    87 00000 0240 C        		EIES10 == EIESCR.2
    88       200F C        		EIES01 == EIESCR.1
    88 00000 0140 C        		EIES01 == EIESCR.1
    89       200F C        		EIES00 == EIESCR.0
    89 00000 0040 C        		EIES00 == EIESCR.0
    90            C        ;R10/WUCR1 :Wake-up Control Register1
    91       2010 C        WUCR1       ==  0X10:rpage 0
    91 00000 0010 C        WUCR1       ==  0X10:rpage 0
    92       2010 C                CMP2WK	== WUCR1.7
    92 00000 0740 C                CMP2WK	== WUCR1.7
    93       2010 C        		CMP1WK	== WUCR1.6
    93 00000 0640 C        		CMP1WK	== WUCR1.6
    94       2010 C        		ADWK        ==  WUCR1.4
    94 00000 0440 C        		ADWK        ==  WUCR1.4
    95       2010 C                INT1WK      ==  WUCR1.3
    95 00000 0340 C                INT1WK      ==  WUCR1.3
    96       2010 C                INT0WK      ==  WUCR1.2
    96 00000 0240 C                INT0WK      ==  WUCR1.2
    97            C        ;R11/WUCR2 :Wake-up Control Register2
    98       2011 C        WUCR2       ==  0X11:rpage 0
    98 00000 0010 C        WUCR2       ==  0X11:rpage 0
    99       2011 C                CMP3WK	== WUCR2.6
    99 00000 0640 C                CMP3WK	== WUCR2.6
   100            C        ;R12/WUCR3 :Wake-up Control Register3
   101       2012 C        WUCR3       ==  0X12:rpage 0
   101 00000 0010 C        WUCR3       ==  0X12:rpage 0
   102       2012 C                ICWKP6      ==  WUCR3.5
   102 00000 0540 C                ICWKP6      ==  WUCR3.5
   103       2012 C                ICWKP5      ==  WUCR3.4
   103 00000 0440 C                ICWKP5      ==  WUCR3.4
   104            C        ;R13/SYSCON :
   105       2013 C        SYSCON      ==  0X13:rpage 0
   105 00000 0010 C        SYSCON      ==  0X13:rpage 0
   106       2013 C                LDOI        ==  SYSCON.7
   106 00000 0740 C                LDOI        ==  SYSCON.7
   107            C        ;R14/SFR1 :Status Flag Register 1
   108       2014 C        SFR1        ==  0X14:rpage 0
   108 00000 0010 C        SFR1        ==  0X14:rpage 0
   109       2014 C                CMP2SF == SFR1.7
   109 00000 0740 C                CMP2SF == SFR1.7
   110       2014 C        		CMP1SF == SFR1.6
   110 00000 0640 C        		CMP1SF == SFR1.6
   111       2014 C        		ADSF        ==  SFR1.4
   111 00000 0440 C        		ADSF        ==  SFR1.4
   112       2014 C                EXSF1       ==  SFR1.3
   112 00000 0340 C                EXSF1       ==  SFR1.3
   113       2014 C                EXSF0       ==  SFR1.2
   113 00000 0240 C                EXSF0       ==  SFR1.2
   114            C        ;R15/SFR2 :Status Flag Register2
   115       2015 C        SFR2        ==  0X15:rpage 0
   115 00000 0010 C        SFR2        ==  0X15:rpage 0
   116       2015 C        	CMP3SF == SFR2.6
   116 00000 0640 C        	CMP3SF == SFR2.6
   117            C        ;R16/SFR3 :Status Flag Register3
   118       2016 C        SFR3 == 0X16:rpage 0
   118 00000 0010 C        SFR3 == 0X16:rpage 0
   119       2016 C        	PWMCPSF == SFR3.5
   119 00000 0540 C        	PWMCPSF == SFR3.5
   120       2016 C        	PWMCDSF == SFR3.4
   120 00000 0440 C        	PWMCDSF == SFR3.4
   121       2016 C        	PWMBPSF == SFR3.3
   121 00000 0340 C        	PWMBPSF == SFR3.3
   122       2016 C        	PWMBDSF == SFR3.2
   122 00000 0240 C        	PWMBDSF == SFR3.2
   123       2016 C        	PWMAPSF == SFR3.1
   123 00000 0140 C        	PWMAPSF == SFR3.1
   124       2016 C        	PWMADSF == SFR3.0
   124 00000 0040 C        	PWMADSF == SFR3.0
   125            C        ;R17/SFR4 :Status Flag Register4
   126       2017 C        SFR4        ==  0X17:rpage 0
   126 00000 0010 C        SFR4        ==  0X17:rpage 0
   127       2017 C                P6ICSF      ==  SFR4.5
   127 00000 0540 C                P6ICSF      ==  SFR4.5
   128       2017 C                P5ICSF      ==  SFR4.4
   128 00000 0440 C                P5ICSF      ==  SFR4.4
   129            C        ;R19/SFR6 :Status Flag Register6
   130       2019 C        SFR6        ==  0X19:rpage 0
   130 00000 0010 C        SFR6        ==  0X19:rpage 0
   131       2019 C                SHSF        ==  SFR6.7
   131 00000 0740 C                SHSF        ==  SFR6.7
   132            C        ;R1A/SFR7 :Status Flag Register7
   133       201A C        SFR7        ==  0X1A:rpage 0
   133 00000 0010 C        SFR7        ==  0X1A:rpage 0
   134       201A C                AFPWMSF     ==  SFR7.7
   134 00000 0740 C                AFPWMSF     ==  SFR7.7
   135       201A C                TXDSF       ==  SFR7.6
   135 00000 0640 C                TXDSF       ==  SFR7.6
   136       201A C                TXCSF       ==  SFR7.5
   136 00000 0540 C                TXCSF       ==  SFR7.5
   137       201A C                TM2DASF     ==  SFR7.4
   137 00000 0440 C                TM2DASF     ==  SFR7.4
   138       201A C                TM1DASF     ==  SFR7.3
   138 00000 0340 C                TM1DASF     ==  SFR7.3
   139       201A C                TM1OFSF     ==  SFR7.2
   139 00000 0240 C                TM1OFSF     ==  SFR7.2
   140       201A C                TM2DBSF     ==  SFR7.1
   140 00000 0140 C                TM2DBSF     ==  SFR7.1
   141       201A C                TM1DBSF     ==  SFR7.0
   141 00000 0040 C                TM1DBSF     ==  SFR7.0
   142            C        ;R1B/IMR1 :Interrupt Mask Register 1
   143       201B C        IMR1        ==  0X1B:rpage 0
   143 00000 0010 C        IMR1        ==  0X1B:rpage 0
   144       201B C                CMP2IE == IMR1.7
   144 00000 0740 C                CMP2IE == IMR1.7
   145       201B C        		CMP1IE == IMR1.6
   145 00000 0640 C        		CMP1IE == IMR1.6
   146       201B C        		ADIE        ==  IMR1.4
   146 00000 0440 C        		ADIE        ==  IMR1.4
   147       201B C                EXIE1       ==  IMR1.3
   147 00000 0340 C                EXIE1       ==  IMR1.3
   148       201B C                EXIE0       ==  IMR1.2
   148 00000 0240 C                EXIE0       ==  IMR1.2
   149            C        ;RF/IMR2 :Interrupt Mask Register 2
   150       201C C        IMR2        ==  0X1C:rpage 0
   150 00000 0010 C        IMR2        ==  0X1C:rpage 0
   151       201C C                CMP3IE == IMR2.6
   151 00000 0640 C                CMP3IE == IMR2.6
   152            C        ;R1D/IMR3 :Interrupt Mask Register 3
   153       201D C        IMR3 == 0X1D:rpage 0
   153 00000 0010 C        IMR3 == 0X1D:rpage 0
   154       201D C        	PWMCPIE == IMR3.5
   154 00000 0540 C        	PWMCPIE == IMR3.5
   155       201D C        	PWMCDIE == IMR3.4
   155 00000 0440 C        	PWMCDIE == IMR3.4
   156       201D C        	PWMBPIE == IMR3.3
   156 00000 0340 C        	PWMBPIE == IMR3.3
   157       201D C        	PWMBDIE == IMR3.2
   157 00000 0240 C        	PWMBDIE == IMR3.2
   158       201D C        	PWMAPIE == IMR3.1
   158 00000 0140 C        	PWMAPIE == IMR3.1
   159       201D C        	PWMADIE == IMR3.0
   159 00000 0040 C        	PWMADIE == IMR3.0
   160            C        ;R1E/IMR4 :Interrupt Mask Register 4
   161       201E C        IMR4        ==  0X1E:rpage 0
   161 00000 0010 C        IMR4        ==  0X1E:rpage 0
   162       201E C                P6ICIE      ==  IMR4.5
   162 00000 0540 C                P6ICIE      ==  IMR4.5
   163       201E C                P5ICIE      ==  IMR4.4
   163 00000 0440 C                P5ICIE      ==  IMR4.4
   164            C        ;R20/IMR6 :Interrupt Mask Register 6
   165       2020 C        IMR6        ==  0X20:rpage 0
   165 00000 0010 C        IMR6        ==  0X20:rpage 0
   166       2020 C                SHIE        ==  IMR6.7
   166 00000 0740 C                SHIE        ==  IMR6.7
   167       2020 C                AFPWMIE     ==  IMR6.3
   167 00000 0340 C                AFPWMIE     ==  IMR6.3
   168       2020 C                TXTMIE      ==  IMR6.2
   168 00000 0240 C                TXTMIE      ==  IMR6.2
   169       2020 C                TM2IE       ==  IMR6.1
   169 00000 0140 C                TM2IE       ==  IMR6.1
   170       2020 C                TM1IE       ==  IMR6.0
   170 00000 0040 C                TM1IE       ==  IMR6.0
   171            C        ;R21/WDTCR :Watch Dog Timer Control Register
   172       2021 C        WDTCR       ==  0X21:rpage 0
   172 00000 0010 C        WDTCR       ==  0X21:rpage 0
   173       2021 C                WDTE        ==  WDTCR.7
   173 00000 0740 C                WDTE        ==  WDTCR.7
   174       2021 C                FSSF        ==  WDTCR.6
   174 00000 0640 C                FSSF        ==  WDTCR.6
   175       2021 C                PSWE        ==  WDTCR.3
   175 00000 0340 C                PSWE        ==  WDTCR.3
   176       2021 C                WPSR2       ==  WDTCR.2
   176 00000 0240 C                WPSR2       ==  WDTCR.2
   177       2021 C                WPSR1       ==  WDTCR.1
   177 00000 0140 C                WPSR1       ==  WDTCR.1
   178       2021 C                WPSR0       ==  WDTCR.0
   178 00000 0040 C                WPSR0       ==  WDTCR.0
   179            C        ;R3E/ADCR1 :ADC Control Register1
   180       203E C        ADCR1       ==  0X3E:rpage 0
   180 00000 0010 C        ADCR1       ==  0X3E:rpage 0
   181       203E C                CKR1        ==  ADCR1.6
   181 00000 0640 C                CKR1        ==  ADCR1.6
   182       203E C                CKR0        ==  ADCR1.5
   182 00000 0540 C                CKR0        ==  ADCR1.5
   183       203E C                ADRUN       ==  ADCR1.4
   183 00000 0440 C                ADRUN       ==  ADCR1.4
   184       203E C                ADP         ==  ADCR1.3
   184 00000 0340 C                ADP         ==  ADCR1.3
   185       203E C                ADOM        ==  ADCR1.2
   185 00000 0240 C                ADOM        ==  ADCR1.2
   186       203E C                SHS1        ==  ADCR1.1
   186 00000 0140 C                SHS1        ==  ADCR1.1
   187       203E C                SHS0        ==  ADCR1.0
   187 00000 0040 C                SHS0        ==  ADCR1.0
   188            C        ;R3F/ADCR2 :ADC Control Register2
   189       203F C        ADCR2       ==  0X3F:rpage 0
   189 00000 0010 C        ADCR2       ==  0X3F:rpage 0
   190       203F C                ADLPFEN     ==  ADCR2.7
   190 00000 0740 C                ADLPFEN     ==  ADCR2.7
   191       203F C                ADIM        ==  ADCR2.5
   191 00000 0540 C                ADIM        ==  ADCR2.5
   192       203F C                ADCMS       ==  ADCR2.4
   192 00000 0440 C                ADCMS       ==  ADCR2.4
   193       203F C                VPIS1       ==  ADCR2.3
   193 00000 0340 C                VPIS1       ==  ADCR2.3
   194       203F C                VPIS0       ==  ADCR2.2
   194 00000 0240 C                VPIS0       ==  ADCR2.2
   195            C        ;R40/ADISR :Analog to Digital Converter Input Channel Selection Register
   196       2040 C        ADISR       ==  0X40:rpage 0
   196 00000 0010 C        ADISR       ==  0X40:rpage 0
   197       2040 C                TSLPFEN     ==  ADISR.7
   197 00000 0740 C                TSLPFEN     ==  ADISR.7
   198       2040 C                TSP         ==  ADISR.6
   198 00000 0640 C                TSP         ==  ADISR.6
   199       2040 C                WMA1        ==  ADISR.5
   199 00000 0540 C                WMA1        ==  ADISR.5
   200       2040 C                WMA0        ==  ADISR.4
   200 00000 0440 C                WMA0        ==  ADISR.4
   201       2040 C                ADIS2       ==  ADISR.2
   201 00000 0240 C                ADIS2       ==  ADISR.2
   202       2040 C                ADIS1       ==  ADISR.1
   202 00000 0140 C                ADIS1       ==  ADISR.1
   203       2040 C                ADIS0       ==  ADISR.0
   203 00000 0040 C                ADIS0       ==  ADISR.0
   204            C        ;R41/ADER1 :ADC Input Enable Register
   205       2041 C        ADER1       ==  0X41:rpage 0
   205 00000 0010 C        ADER1       ==  0X41:rpage 0
   206       2041 C                ADE5        ==  ADER1.5
   206 00000 0540 C                ADE5        ==  ADER1.5
   207       2041 C                ADE4        ==  ADER1.4
   207 00000 0440 C                ADE4        ==  ADER1.4
   208       2041 C                ADE3        ==  ADER1.3
   208 00000 0340 C                ADE3        ==  ADER1.3
   209       2041 C                ADE2        ==  ADER1.2
   209 00000 0240 C                ADE2        ==  ADER1.2
   210       2041 C                ADE1        ==  ADER1.1
   210 00000 0140 C                ADE1        ==  ADER1.1
   211       2041 C                ADE0        ==  ADER1.0
   211 00000 0040 C                ADE0        ==  ADER1.0
   212            C        ;R43/ADDL :ADC Low-8 Bits Data Buffer
   213       2043 C        ADDL        ==  0X43:rpage 0
   213 00000 0010 C        ADDL        ==  0X43:rpage 0
   214            C        ;R44/ADDH :ADC High-8 Bits Data Buffer
   215       2044 C        ADDH        ==  0X44:rpage 0
   215 00000 0010 C        ADDH        ==  0X44:rpage 0
   216            C        ;R45/ADCVL :Low Byte of Analog to Digital Converter Comparison
   217       2045 C        ADCVL       ==  0X45:rpage 0
   217 00000 0010 C        ADCVL       ==  0X45:rpage 0
   218            C        ;R46/ADCVH :High Byte of Analog to Digital Converter Comparison
   219       2046 C        ADCVH       ==  0X46:rpage 0
   219 00000 0010 C        ADCVH       ==  0X46:rpage 0
   220            C        ;======================================================
   221            C        ;      BANK 1
   222            C        ;Registers R5~R4F
   223            C        ;======================================================
   224            C        ;R08/P5PHCR :Port5 Pull-high Control Register
   225       2008 C        P5PHCR      ==  0X08:rpage 1
   225 00000 0011 C        P5PHCR      ==  0X08:rpage 1
   226       2008 C                PH57        ==  P5PHCR.7
   226 00000 0741 C                PH57        ==  P5PHCR.7
   227       2008 C                PH56        ==  P5PHCR.6
   227 00000 0641 C                PH56        ==  P5PHCR.6
   228       2008 C                PH55        ==  P5PHCR.6
   228 00000 0641 C                PH55        ==  P5PHCR.6
   229       2008 C                PH54        ==  P5PHCR.4
   229 00000 0441 C                PH54        ==  P5PHCR.4
   230       2008 C                PH53        ==  P5PHCR.3
   230 00000 0341 C                PH53        ==  P5PHCR.3
   231       2008 C                PH52        ==  P5PHCR.2
   231 00000 0241 C                PH52        ==  P5PHCR.2
   232       2008 C                PH51        ==  P5PHCR.1
   232 00000 0141 C                PH51        ==  P5PHCR.1
   233       2008 C                PH50        ==  P5PHCR.0
   233 00000 0041 C                PH50        ==  P5PHCR.0
   234            C        ;R09/P6PHCR :Port6 Pull-high Control Register
   235       2009 C        P6PHCR      ==  0X09:rpage 1
   235 00000 0011 C        P6PHCR      ==  0X09:rpage 1
   236       2009 C                PH62        ==  P6PHCR.2
   236 00000 0241 C                PH62        ==  P6PHCR.2
   237       2009 C                PH61        ==  P6PHCR.1
   237 00000 0141 C                PH61        ==  P6PHCR.1
   238       2009 C                PH60        ==  P6PHCR.0
   238 00000 0041 C                PH60        ==  P6PHCR.0
   239            C        ;R0B/P5PLCR Port 5 Pull-low Control Register
   240       200B C        P5PLCR      ==  0X0B:rpage 1
   240 00000 0011 C        P5PLCR      ==  0X0B:rpage 1
   241       200B C                PL57        ==  P5PLCR.7
   241 00000 0741 C                PL57        ==  P5PLCR.7
   242       200B C                PL56        ==  P5PLCR.6
   242 00000 0641 C                PL56        ==  P5PLCR.6
   243       200B C                PL55        ==  P5PLCR.5
   243 00000 0541 C                PL55        ==  P5PLCR.5
   244       200B C                PL54        ==  P5PLCR.4
   244 00000 0441 C                PL54        ==  P5PLCR.4
   245       200B C                PL53        ==  P5PLCR.3
   245 00000 0341 C                PL53        ==  P5PLCR.3
   246       200B C                PL52        ==  P5PLCR.2
   246 00000 0241 C                PL52        ==  P5PLCR.2
   247       200B C                PL51        ==  P5PLCR.1
   247 00000 0141 C                PL51        ==  P5PLCR.1
   248       200B C                PL50        ==  P5PLCR.0
   248 00000 0041 C                PL50        ==  P5PLCR.0
   249            C        ;R0C/P6PLCR Port 6 Pull-low Control Register
   250       200B C        P6PLCR      ==  0X0B:rpage 1
   250 00000 0011 C        P6PLCR      ==  0X0B:rpage 1
   251       200B C                PL62        ==  P6PLCR.2
   251 00000 0241 C                PL62        ==  P6PLCR.2
   252       200B C                PL61        ==  P6PLCR.1
   252 00000 0141 C                PL61        ==  P6PLCR.1
   253       200B C                PL60        ==  P6PLCR.0
   253 00000 0041 C                PL60        ==  P6PLCR.0
   254            C        ;R0E/P5HDSCR :Port 5 High Drive/Sink Control Register
   255       200E C        P5HDSCR     ==  0X0E:rpage 1
   255 00000 0011 C        P5HDSCR     ==  0X0E:rpage 1
   256       200E C                HDS57       ==  P5HDSCR.7
   256 00000 0741 C                HDS57       ==  P5HDSCR.7
   257       200E C                HDS56       ==  P5HDSCR.6
   257 00000 0641 C                HDS56       ==  P5HDSCR.6
   258       200E C                HDS55       ==  P5HDSCR.5
   258 00000 0541 C                HDS55       ==  P5HDSCR.5
   259       200E C                HDS54       ==  P5HDSCR.4
   259 00000 0441 C                HDS54       ==  P5HDSCR.4
   260       200E C                HDS53       ==  P5HDSCR.3
   260 00000 0341 C                HDS53       ==  P5HDSCR.3
   261       200E C                HDS52       ==  P5HDSCR.2
   261 00000 0241 C                HDS52       ==  P5HDSCR.2
   262       200E C                HDS51       ==  P5HDSCR.1
   262 00000 0141 C                HDS51       ==  P5HDSCR.1
   263       200E C                HDS50       ==  P5HDSCR.0
   263 00000 0041 C                HDS50       ==  P5HDSCR.0
   264            C        ;R0F/P6HDSCR :Port 6 High Drive/Sink Control Register
   265       200E C        P6HDSCR     ==  0X0E:rpage 1
   265 00000 0011 C        P6HDSCR     ==  0X0E:rpage 1
   266       200E C                HDS62       ==  P6HDSCR.2
   266 00000 0241 C                HDS62       ==  P6HDSCR.2
   267       200E C                HDS61       ==  P6HDSCR.1
   267 00000 0141 C                HDS61       ==  P6HDSCR.1
   268       200E C                HDS60       ==  P6HDSCR.0
   268 00000 0041 C                HDS60       ==  P6HDSCR.0
   269            C        ;R16 PWMSCR :PWM Start Control Register
   270       2016 C        PWMSCR == 0X16:rpage 1
   270 00000 0011 C        PWMSCR == 0X16:rpage 1
   271       2016 C        	TBEN == PWMSCR.1
   271 00000 0141 C        	TBEN == PWMSCR.1
   272       2016 C        	TAEN == PWMSCR.0
   272 00000 0041 C        	TAEN == PWMSCR.0
   273            C        ;R17 PWMACR :PWMA Control Register
   274       2017 C        PWMACR == 0X17:rpage 1
   274 00000 0011 C        PWMACR == 0X17:rpage 1
   275       2017 C        	PWMAE == PWMACR.7
   275 00000 0741 C        	PWMAE == PWMACR.7
   276       2017 C        	PWMAA == PWMACR.5
   276 00000 0541 C        	PWMAA == PWMACR.5
   277       2017 C        	PWMAS == PWMACR.3
   277 00000 0341 C        	PWMAS == PWMACR.3
   278       2017 C        	TAP2 == PWMACR.2
   278 00000 0241 C        	TAP2 == PWMACR.2
   279       2017 C        	TAP1 == PWMACR.1
   279 00000 0141 C        	TAP1 == PWMACR.1
   280       2017 C        	TAP0 == PWMACR.0
   280 00000 0041 C        	TAP0 == PWMACR.0
   281            C        ;R18 PRDAL (Low byte of PWMA period)
   282       2018 C        PRDAL == 0X18:rpage 1
   282 00000 0011 C        PRDAL == 0X18:rpage 1
   283            C        ;R19 PRDAH (High byte of PWMA period)
   284       2019 C        PRDAH == 0X19:rpage 1	
   284 00000 0011 C        PRDAH == 0X19:rpage 1	
   285            C        ;R1A DTAL (Low byte of PMWA duty)
   286       201A C        DTAL == 0X1A:rpage 1
   286 00000 0011 C        DTAL == 0X1A:rpage 1
   287            C        ;R1B DTAH (High byte of PMWA duty)
   288       201B C        DTAH == 0X1B:rpage 1
   288 00000 0011 C        DTAH == 0X1B:rpage 1
   289            C        ;R1C TMRAL (Low byte of TimerA)
   290       201C C        TMRAL == 0X1C:rpage 1
   290 00000 0011 C        TMRAL == 0X1C:rpage 1
   291            C        ;R1D TMRAH (High byte of TimerA)
   292       201D C        TMRAH == 0X1D:rpage 1
   292 00000 0011 C        TMRAH == 0X1D:rpage 1
   293            C        ;R1E PWMBCR (PWMB Control Register)
   294       201E C        PWMBCR == 0X1E:rpage 1
   294 00000 0011 C        PWMBCR == 0X1E:rpage 1
   295       201E C        	PWMBE == PWMBCR.7
   295 00000 0741 C        	PWMBE == PWMBCR.7
   296       201E C        	PWMBA == PWMBCR.5
   296 00000 0541 C        	PWMBA == PWMBCR.5
   297       201E C        	PWMBS == PWMBCR.3
   297 00000 0341 C        	PWMBS == PWMBCR.3
   298       201E C        	TBP2 == PWMBCR.2
   298 00000 0241 C        	TBP2 == PWMBCR.2
   299       201E C        	TBP1 == PWMBCR.1
   299 00000 0141 C        	TBP1 == PWMBCR.1
   300       201E C        	TBP0 == PWMBCR.0
   300 00000 0041 C        	TBP0 == PWMBCR.0
   301            C        ;R1F PRDBL (Low byte of PWMB period)
   302       201F C        PRDBL == 0X1F:rpage 1
   302 00000 0011 C        PRDBL == 0X1F:rpage 1
   303            C        ;R20 PRDBH (High byte of PWMB period)
   304       2020 C        PRDBH == 0X20:rpage 1	
   304 00000 0011 C        PRDBH == 0X20:rpage 1	
   305            C        ;R21 DTBL (Low byte of PMWB duty)
   306       2021 C        DTBL == 0X21:rpage 1
   306 00000 0011 C        DTBL == 0X21:rpage 1
   307            C        ;R22 DTBH (High byte of PMWB duty)
   308       2022 C        DTBH == 0X22:rpage 1
   308 00000 0011 C        DTBH == 0X22:rpage 1
   309            C        ;R23 TMRBL (Low byte of TimerB)
   310       2023 C        TMRBL == 0X23:rpage 1
   310 00000 0011 C        TMRBL == 0X23:rpage 1
   311            C        ;R24 TMRBH (High byte of TimerB)
   312       2024 C        TMRBH == 0X24:rpage 1
   312 00000 0011 C        TMRBH == 0X24:rpage 1
   313            C        ;R40/EECR1 :EEPROM Control Register 1
   314       2040 C        EECR1       ==  0X40:rpage 1
   314 00000 0011 C        EECR1       ==  0X40:rpage 1
   315       2040 C                EEPVSF      ==  EECR1.4
   315 00000 0441 C                EEPVSF      ==  EECR1.4
   316       2040 C                EEPV        ==  EECR1.3
   316 00000 0341 C                EEPV        ==  EECR1.3
   317       2040 C                ONRD        ==  EECR1.2
   317 00000 0241 C                ONRD        ==  EECR1.2
   318       2040 C                RD          ==  EECR1.1
   318 00000 0141 C                RD          ==  EECR1.1
   319       2040 C                WR          ==  EECR1.0
   319 00000 0041 C                WR          ==  EECR1.0
   320            C        ;R41/EECR2 :EEPROM Control Register 2
   321       2041 C        EECR2       ==  0X41:rpage 1
   321 00000 0011 C        EECR2       ==  0X41:rpage 1
   322       2041 C                EEWE        ==  EECR2.7
   322 00000 0741 C                EEWE        ==  EECR2.7
   323       2041 C                EEDF        ==  EECR2.6
   323 00000 0641 C                EEDF        ==  EECR2.6
   324       2041 C                EEPC        ==  EECR2.5
   324 00000 0541 C                EEPC        ==  EECR2.5
   325            C        ;R42/EERA :EEPROM Address
   326       2042 C        EERA        ==  0X42:rpage 1
   326 00000 0011 C        EERA        ==  0X42:rpage 1
   327       2042 C        EEAR        ==  0X42:rpage 1
   327 00000 0011 C        EEAR        ==  0X42:rpage 1
   328            C        ;R43/EERD :EEPROM Data
   329       2043 C        EERD        ==  0X43:rpage 1
   329 00000 0011 C        EERD        ==  0X43:rpage 1
   330       2043 C        EEDR        ==  0X43:rpage 1
   330 00000 0011 C        EEDR        ==  0X43:rpage 1
   331            C        ;R44/FLKR :Flash Key Register for Table Write Use
   332       2044 C        FLKR        ==  0X44:rpage 1
   332 00000 0011 C        FLKR        ==  0X44:rpage 1
   333            C        ;R45/TBPTL :Table Point Low Register
   334       2045 C        TBPTL       ==  0X45:rpage 1
   334 00000 0011 C        TBPTL       ==  0X45:rpage 1
   335            C        ;R46/TBPTH :Table Point High Register
   336       2046 C        TBPTH       ==  0X46:rpage 1
   336 00000 0011 C        TBPTH       ==  0X46:rpage 1
   337       2046 C                HLB     ==  TBPTH.7
   337 00000 0741 C                HLB     ==  TBPTH.7
   338       2046 C                RDS     ==  TBPTH.6
   338 00000 0641 C                RDS     ==  TBPTH.6
   339            C        ;R47/STKMON :Stack point
   340       2047 C        STKMON      ==  0X47:rpage 1
   340 00000 0011 C        STKMON      ==  0X47:rpage 1
   341       2047 C                STOV        ==  STKMON.7
   341 00000 0741 C                STOV        ==  STKMON.7
   342       2047 C                STL2        ==  STKMON.2
   342 00000 0241 C                STL2        ==  STKMON.2
   343       2047 C                STL1        ==  STKMON.1
   343 00000 0141 C                STL1        ==  STKMON.1
   344       2047 C                STL0        ==  STKMON.0
   344 00000 0041 C                STL0        ==  STKMON.0
   345            C        ;R48/PCH :Program Counter High
   346       2048 C        PCH         ==  0X48:rpage 1
   346 00000 0011 C        PCH         ==  0X48:rpage 1
   347       204A C        COBS1       ==  0X4A:rpage 1
   347 00000 0011 C        COBS1       ==  0X4A:rpage 1
   348       204A C        		HLFS	== COBS1.7
   348 00000 0741 C        		HLFS	== COBS1.7
   349       204A C        		ENWDT	== COBS1.5
   349 00000 0541 C        		ENWDT	== COBS1.5
   350       204A C        		NRHL	== COBS1.4
   350 00000 0441 C        		NRHL	== COBS1.4
   351       204A C        		NRE		== COBS1.3
   351 00000 0341 C        		NRE		== COBS1.3
   352       204A C        		ADFM	== COBS1.2
   352 00000 0241 C        		ADFM	== COBS1.2
   353       204B C        COBS2       ==  0X4B:rpage 1
   353 00000 0011 C        COBS2       ==  0X4B:rpage 1
   354       204B C        		RT5		== COBS2.5
   354 00000 0541 C        		RT5		== COBS2.5
   355       204B C        		RT4		== COBS2.4
   355 00000 0441 C        		RT4		== COBS2.4
   356       204B C        		RT3		== COBS2.3
   356 00000 0341 C        		RT3		== COBS2.3
   357       204B C        		RT2		== COBS2.2
   357 00000 0241 C        		RT2		== COBS2.2
   358       204B C        		RT1		== COBS2.1
   358 00000 0141 C        		RT1		== COBS2.1
   359       204B C        		RT0		== COBS2.0
   359 00000 0041 C        		RT0		== COBS2.0
   360       204C C        COBS3       ==  0X4C:rpage 1
   360 00000 0011 C        COBS3       ==  0X4C:rpage 1
   361       204C C        		IRT		== COBS3.7
   361 00000 0741 C        		IRT		== COBS3.7
   362       204C C        		TSRT	== COBS3.6
   362 00000 0641 C        		TSRT	== COBS3.6
   363       204C C        		RIRT	== COBS3.5
   363 00000 0541 C        		RIRT	== COBS3.5
   364       204C C        		CT3		== COBS3.3
   364 00000 0341 C        		CT3		== COBS3.3
   365       204C C        		CT2		== COBS3.2
   365 00000 0241 C        		CT2		== COBS3.2
   366       204C C        		CT1		== COBS3.1
   366 00000 0141 C        		CT1		== COBS3.1
   367       204C C        		CT0		== COBS3.0
   367 00000 0041 C        		CT0		== COBS3.0
   368            C        ;R4D/TBWCR :Table Write Control Register
   369       204D C        TBWCR       ==  0X4D:rpage 1
   369 00000 0011 C        TBWCR       ==  0X4D:rpage 1
   370       204D C                IAPVSF     ==  TBWCR.2
   370 00000 0241 C                IAPVSF     ==  TBWCR.2
   371       204D C                IAPV       ==  TBWCR.1
   371 00000 0141 C                IAPV       ==  TBWCR.1
   372       204D C                IAPEN      ==  TBWCR.0
   372 00000 0041 C                IAPEN      ==  TBWCR.0
   373            C        ;R4E/TBWAL :Table Write start Address Low byte
   374       204E C        TBWAL       ==  0X4E:rpage 1
   374 00000 0011 C        TBWAL       ==  0X4E:rpage 1
   375            C        ;R4F/TBWAH :Table Write start Address High byte
   376       204F C        TBWAH       ==  0X4F:rpage 1
   376 00000 0011 C        TBWAH       ==  0X4F:rpage 1
   377            C        
   378            C        ;======================================================
   379            C        ;      BANK 2
   380            C        ;Registers R5~R4F
   381            C        ;======================================================
   382            C        ;R05/TM1CR1 :Timer/Counter 1 Control Register 1
   383       2005 C        TM1CR1      ==  0X05:rpage 2
   383 00000 0012 C        TM1CR1      ==  0X05:rpage 2
   384       2005 C                TM1S        ==  TM1CR1.7
   384 00000 0742 C                TM1S        ==  TM1CR1.7
   385       2005 C                TM1RC       ==  TM1CR1.6
   385 00000 0642 C                TM1RC       ==  TM1CR1.6
   386       2005 C                TM1SS1      ==  TM1CR1.5
   386 00000 0542 C                TM1SS1      ==  TM1CR1.5
   387       2005 C                TM1RX1      ==  TM1CR1.4
   387 00000 0442 C                TM1RX1      ==  TM1CR1.4
   388       2005 C                TM1FF       ==  TM1CR1.3
   388 00000 0342 C                TM1FF       ==  TM1CR1.3
   389       2005 C                TM1MOS      ==  TM1CR1.2
   389 00000 0242 C                TM1MOS      ==  TM1CR1.2
   390       2005 C                TM1IS1      ==  TM1CR1.1
   390 00000 0142 C                TM1IS1      ==  TM1CR1.1
   391       2005 C                TM1IS0      ==  TM1CR1.0
   391 00000 0042 C                TM1IS0      ==  TM1CR1.0
   392            C        ;R06/TM1CR2 :Timer/Counter 1 Control Register 2
   393       2006 C        TM1CR2      ==  0X06:rpage 2
   393 00000 0012 C        TM1CR2      ==  0X06:rpage 2
   394       2006 C                TM1M2       ==  TM1CR2.7
   394 00000 0742 C                TM1M2       ==  TM1CR2.7
   395       2006 C                TM1M1       ==  TM1CR2.6
   395 00000 0642 C                TM1M1       ==  TM1CR2.6
   396       2006 C                TM1M0       ==  TM1CR2.5
   396 00000 0542 C                TM1M0       ==  TM1CR2.5
   397       2006 C                TM1SS0      ==  TM1CR2.4
   397 00000 0442 C                TM1SS0      ==  TM1CR2.4
   398       2006 C                TM1CK3      ==  TM1CR2.3
   398 00000 0342 C                TM1CK3      ==  TM1CR2.3
   399       2006 C                TM1CK2      ==  TM1CR2.2
   399 00000 0242 C                TM1CK2      ==  TM1CR2.2
   400       2006 C                TM1CK1      ==  TM1CR2.1
   400 00000 0142 C                TM1CK1      ==  TM1CR2.1
   401       2006 C                TM1CK0      ==  TM1CR2.0
   401 00000 0042 C                TM1CK0      ==  TM1CR2.0
   402            C        ;R07/TM1DBH :Timer/Counter 1 Data Buffer B High Byte
   403       2007 C        TM1DBH      ==  0X07:rpage 2
   403 00000 0012 C        TM1DBH      ==  0X07:rpage 2
   404            C        ;R08/TM1DBL :Timer/Counter 1 Data Buffer B Low Byte
   405       2008 C        TM1DBL      ==  0X08:rpage 2
   405 00000 0012 C        TM1DBL      ==  0X08:rpage 2
   406            C        ;R09/TM1DAH :Timer/Counter 1 Data Buffer A High Byte
   407       2009 C        TM1DAH      ==  0X09:rpage 2
   407 00000 0012 C        TM1DAH      ==  0X09:rpage 2
   408            C        ;R0A/TM1DAL :Timer/Counter 1 Data Buffer A Low Byte
   409       200A C        TM1DAL      ==  0X0A:rpage 2
   409 00000 0012 C        TM1DAL      ==  0X0A:rpage 2
   410            C        ;R0B/TM2CR1 :Timer/Counter 2 Control Register 1
   411       200B C        TM2CR1      ==  0X0B:rpage 2
   411 00000 0012 C        TM2CR1      ==  0X0B:rpage 2
   412       200B C                TM2S        ==  TM2CR1.7
   412 00000 0742 C                TM2S        ==  TM2CR1.7
   413       200B C                TM2RC       ==  TM2CR1.6
   413 00000 0642 C                TM2RC       ==  TM2CR1.6
   414       200B C                TM2SS1      ==  TM2CR1.5
   414 00000 0542 C                TM2SS1      ==  TM2CR1.5
   415       200B C                TM2RX2      ==  TM2CR1.4
   415 00000 0442 C                TM2RX2      ==  TM2CR1.4
   416       200B C                TM2FF       ==  TM2CR1.3
   416 00000 0342 C                TM2FF       ==  TM2CR1.3
   417       200B C                TM2MOS      ==  TM2CR1.2
   417 00000 0242 C                TM2MOS      ==  TM2CR1.2
   418       200B C                TM2IS1      ==  TM2CR1.1
   418 00000 0142 C                TM2IS1      ==  TM2CR1.1
   419       200B C                TM2IS0      ==  TM2CR1.0
   419 00000 0042 C                TM2IS0      ==  TM2CR1.0
   420            C        ;R0C/TM2CR2 :Timer/Counter 2 Control Register 2
   421       200C C        TM2CR2      ==  0X0C:rpage 2
   421 00000 0012 C        TM2CR2      ==  0X0C:rpage 2
   422       200C C                TM2M2       ==  TM2CR2.7
   422 00000 0742 C                TM2M2       ==  TM2CR2.7
   423       200C C                TM2M1       ==  TM2CR2.6
   423 00000 0642 C                TM2M1       ==  TM2CR2.6
   424       200C C                TM2M0       ==  TM2CR2.5
   424 00000 0542 C                TM2M0       ==  TM2CR2.5
   425       200C C                TM2SS0      ==  TM2CR2.4
   425 00000 0442 C                TM2SS0      ==  TM2CR2.4
   426       200C C                TM2CK3      ==  TM2CR2.3
   426 00000 0342 C                TM2CK3      ==  TM2CR2.3
   427       200C C                TM2CK2      ==  TM2CR2.2
   427 00000 0242 C                TM2CK2      ==  TM2CR2.2
   428       200C C                TM2CK1      ==  TM2CR2.1
   428 00000 0142 C                TM2CK1      ==  TM2CR2.1
   429       200C C                TM2CK0      ==  TM2CR2.0
   429 00000 0042 C                TM2CK0      ==  TM2CR2.0
   430            C        ;R0D/TM2DBH :Timer/Counter 2 Data Buffer B High Byte
   431       200D C        TM2DBH      ==  0X0D:rpage 2
   431 00000 0012 C        TM2DBH      ==  0X0D:rpage 2
   432            C        ;R0E/TM2DBL :Timer/Counter 2 Data Buffer B Low Byte
   433       200E C        TM2DBL      ==  0X0E:rpage 2
   433 00000 0012 C        TM2DBL      ==  0X0E:rpage 2
   434            C        ;R0F/TM2DAH :Timer/Counter 2 Data Buffer A High Byte
   435       200F C        TM2DAH      ==  0X0F:rpage 2
   435 00000 0012 C        TM2DAH      ==  0X0F:rpage 2
   436            C        ;R10/TM2DAL :Timer/Counter 2 Data Buffer A Low Byte
   437       2010 C        TM2DAL      ==  0X10:rpage 2
   437 00000 0012 C        TM2DAL      ==  0X10:rpage 2
   438            C        ;R11 RXCR(RX Control Register±±®Ó±H¶sæπ)
   439       2011 C        RXCR       ==  0X11:rpage 2
   439 00000 0012 C        RXCR       ==  0X11:rpage 2
   440       2011 C                RXIE       ==  RXCR.7
   440 00000 0742 C                RXIE       ==  RXCR.7
   441            C        ;R12 RX1CR1(RX1 Control Register 1±±®Ó±H¶sæπ1)
   442       2012 C        RX1CR1     ==  0X12:rpage 2
   442 00000 0012 C        RX1CR1     ==  0X12:rpage 2
   443       2012 C                RX1E       ==  RX1CR1.7
   443 00000 0742 C                RX1E       ==  RX1CR1.7
   444       2012 C                RX1HV4       ==  RX1CR1.4
   444 00000 0442 C                RX1HV4       ==  RX1CR1.4
   445       2012 C                RX1HV3       ==  RX1CR1.3
   445 00000 0342 C                RX1HV3       ==  RX1CR1.3
   446       2012 C                RX1HV2       ==  RX1CR1.2
   446 00000 0242 C                RX1HV2       ==  RX1CR1.2
   447       2012 C                RX1HV1       ==  RX1CR1.1
   447 00000 0142 C                RX1HV1       ==  RX1CR1.1
   448       2012 C                RX1HV0       ==  RX1CR1.0
   448 00000 0042 C                RX1HV0       ==  RX1CR1.0
   449            C        ;R13 RX1CR2(RX1 Control Register 2±±®Ó±H¶sæπ2)
   450       2013 C        RX1CR2     ==  0X13:rpage 2
   450 00000 0012 C        RX1CR2     ==  0X13:rpage 2
   451       2013 C                RX1OPE       ==  RX1CR2.7
   451 00000 0742 C                RX1OPE       ==  RX1CR2.7
   452       2013 C                RX1OUT       ==  RX1CR2.6
   452 00000 0642 C                RX1OUT       ==  RX1CR2.6
   453       2013 C                RX1LV4       ==  RX1CR2.4
   453 00000 0442 C                RX1LV4       ==  RX1CR2.4
   454       2013 C                RX1LV3       ==  RX1CR2.3
   454 00000 0342 C                RX1LV3       ==  RX1CR2.3
   455       2013 C                RX1LV2       ==  RX1CR2.2
   455 00000 0242 C                RX1LV2       ==  RX1CR2.2
   456       2013 C                RX1LV1       ==  RX1CR2.1
   456 00000 0142 C                RX1LV1       ==  RX1CR2.1
   457       2013 C                RX1LV0       ==  RX1CR2.0
   457 00000 0042 C                RX1LV0       ==  RX1CR2.0
   458            C        ;R14 RX2CR1(RX2 Control Register 1±±®Ó±H¶sæπ1)
   459       2014 C        RX2CR1     ==  0X14:rpage 2
   459 00000 0012 C        RX2CR1     ==  0X14:rpage 2
   460       2014 C                RX2E       ==  RX2CR1.7
   460 00000 0742 C                RX2E       ==  RX2CR1.7
   461       2014 C                RX2HV4       ==  RX2CR1.4
   461 00000 0442 C                RX2HV4       ==  RX2CR1.4
   462       2014 C                RX2HV3       ==  RX2CR1.3
   462 00000 0342 C                RX2HV3       ==  RX2CR1.3
   463       2014 C                RX2HV2       ==  RX2CR1.2
   463 00000 0242 C                RX2HV2       ==  RX2CR1.2
   464       2014 C                RX2HV1       ==  RX2CR1.1
   464 00000 0142 C                RX2HV1       ==  RX2CR1.1
   465       2014 C                RX2HV0       ==  RX2CR1.0
   465 00000 0042 C                RX2HV0       ==  RX2CR1.0
   466            C        ;R15 RX2CR2(RX2 Control Register 2±±®Ó±H¶sæπ2)
   467       2015 C        RX2CR2     ==  0X15:rpage 2
   467 00000 0012 C        RX2CR2     ==  0X15:rpage 2
   468       2015 C                RX2OPE       ==  RX2CR2.7
   468 00000 0742 C                RX2OPE       ==  RX2CR2.7
   469       2015 C                RX2OUT       ==  RX2CR2.6
   469 00000 0642 C                RX2OUT       ==  RX2CR2.6
   470       2015 C                RX2LV4       ==  RX2CR2.4
   470 00000 0442 C                RX2LV4       ==  RX2CR2.4
   471       2015 C                RX2LV3       ==  RX2CR2.3
   471 00000 0342 C                RX2LV3       ==  RX2CR2.3
   472       2015 C                RX2LV2       ==  RX2CR2.2
   472 00000 0242 C                RX2LV2       ==  RX2CR2.2
   473       2015 C                RX2LV1       ==  RX2CR2.1
   473 00000 0142 C                RX2LV1       ==  RX2CR2.1
   474       2015 C                RX2LV0       ==  RX2CR2.0
   474 00000 0042 C                RX2LV0       ==  RX2CR2.0
   475            C        ;R16 RXDCR(RX Deglitch Control Register±±®Ó±H¶sæπ)
   476       2016 C        RXDCR       ==  0X16:rpage 2
   476 00000 0012 C        RXDCR       ==  0X16:rpage 2
   477       2016 C                RX1DS       ==  RXDCR.7
   477 00000 0742 C                RX1DS       ==  RXDCR.7
   478       2016 C                RX1DT2      ==  RXDCR.6
   478 00000 0642 C                RX1DT2      ==  RXDCR.6
   479       2016 C                RX1DT1      ==  RXDCR.5
   479 00000 0542 C                RX1DT1      ==  RXDCR.5
   480       2016 C                RX1DT0      ==  RXDCR.4
   480 00000 0442 C                RX1DT0      ==  RXDCR.4
   481       2016 C                RX2DS       ==  RXDCR.3
   481 00000 0342 C                RX2DS       ==  RXDCR.3
   482       2016 C                RX2DT2      ==  RXDCR.2
   482 00000 0242 C                RX2DT2      ==  RXDCR.2
   483       2016 C                RX2DT1      ==  RXDCR.1
   483 00000 0142 C                RX2DT1      ==  RXDCR.1
   484       2016 C                RX2DT0      ==  RXDCR.0
   484 00000 0042 C                RX2DT0      ==  RXDCR.0
   485            C        ;R17 TXSC(TX Sink Current Register±H¶sæπ)
   486       2017 C        TXSC       ==  0X17:rpage 2
   486 00000 0012 C        TXSC       ==  0X17:rpage 2
   487       2017 C                TXCS3       ==  TXSC.3
   487 00000 0342 C                TXCS3       ==  TXSC.3
   488       2017 C                TXCS2       ==  TXSC.2
   488 00000 0242 C                TXCS2       ==  TXSC.2
   489       2017 C                TXCS1       ==  TXSC.1
   489 00000 0142 C                TXCS1       ==  TXSC.1
   490       2017 C                TXCS0       ==  TXSC.0
   490 00000 0042 C                TXCS0       ==  TXSC.0
   491            C        ;R18 TXCR1(TX Control Register 1±±®Ó±H¶sæπ1)
   492       2018 C        TXCR1     ==  0X18:rpage 2
   492 00000 0012 C        TXCR1     ==  0X18:rpage 2
   493       2018 C                TXE         ==  TXCR1.7
   493 00000 0742 C                TXE         ==  TXCR1.7
   494       2018 C                TXTM        ==  TXCR1.5
   494 00000 0542 C                TXTM        ==  TXCR1.5
   495       2018 C                TXSR1       ==  TXCR1.4
   495 00000 0442 C                TXSR1       ==  TXCR1.4
   496       2018 C                TXSR0       ==  TXCR1.3
   496 00000 0342 C                TXSR0       ==  TXCR1.3
   497       2018 C                TXMV2       ==  TXCR1.2
   497 00000 0242 C                TXMV2       ==  TXCR1.2
   498       2018 C                TXMV1       ==  TXCR1.1
   498 00000 0142 C                TXMV1       ==  TXCR1.1
   499       2018 C                TXMV0       ==  TXCR1.0
   499 00000 0042 C                TXMV0       ==  TXCR1.0
   500            C        ;R19 TXCR2(TX Control Register 2±±®Ó±H¶sæπ2)
   501       2019 C        TXCR2     ==  0X19:rpage 2
   501 00000 0012 C        TXCR2     ==  0X19:rpage 2
   502       2019 C                TXS         ==  TXCR2.7
   502 00000 0742 C                TXS         ==  TXCR2.7
   503       2019 C                TXCLK       ==  TXCR2.6
   503 00000 0642 C                TXCLK       ==  TXCR2.6
   504       2019 C                TXDP2       ==  TXCR2.5
   504 00000 0542 C                TXDP2       ==  TXCR2.5
   505       2019 C                TXDP1       ==  TXCR2.4
   505 00000 0442 C                TXDP1       ==  TXCR2.4
   506       2019 C                TXDP0       ==  TXCR2.3
   506 00000 0342 C                TXDP0       ==  TXCR2.3
   507       2019 C                TXCP2       ==  TXCR2.2
   507 00000 0242 C                TXCP2       ==  TXCR2.2
   508       2019 C                TXCP1       ==  TXCR2.1
   508 00000 0142 C                TXCP1       ==  TXCR2.1
   509       2019 C                TXCP0       ==  TXCR2.0
   509 00000 0042 C                TXCP0       ==  TXCR2.0
   510            C        ;R1A TXDT(TX Delay Timer Register©µø±H¶sæπ)
   511       201A C        TXDT       ==  0X1A:rpage 2
   511 00000 0012 C        TXDT       ==  0X1A:rpage 2
   512            C        ;R1B TXCT(TX Sink Current Timer Register®œØ‡Æ…∂°±H¶sæπ)
   513       201B C        TXCT       ==  0X1B:rpage 2
   513 00000 0012 C        TXCT       ==  0X1B:rpage 2
   514            C        ;R1C TXRC (TXTM Read Counting)
   515       201C C        TXRC       ==  0X1C:rpage 2
   515 00000 0012 C        TXRC       ==  0X1C:rpage 2
   516            C        ;R1D CMP3&LRR (CMP3&Limiting Resistor Register≠≠¨yπq™˝±H¶sæπ)
   517       201D C        CMP3LRR    ==  0X1D:rpage 2
   517 00000 0012 C        CMP3LRR    ==  0X1D:rpage 2
   518       201D C                CMP3DS      ==  CMP3LRR.7
   518 00000 0742 C                CMP3DS      ==  CMP3LRR.7
   519       201D C                CMP3DT2     ==  CMP3LRR.6
   519 00000 0642 C                CMP3DT2     ==  CMP3LRR.6
   520       201D C                CMP3DT1     ==  CMP3LRR.5
   520 00000 0542 C                CMP3DT1     ==  CMP3LRR.5
   521       201D C                CMP3DT0     ==  CMP3LRR.4
   521 00000 0442 C                CMP3DT0     ==  CMP3LRR.4
   522       201D C                CL1   	    ==  CMP3LRR.1
   522 00000 0142 C                CL1   	    ==  CMP3LRR.1
   523       201D C                CL0  	    ==  CMP3LRR.0
   523 00000 0042 C                CL0  	    ==  CMP3LRR.0
   524            C        ;R1E DCCR (Discharge Control Register ©Òπq±±®Ó±H¶sæπ)
   525       201E C        DCCR       ==  0X1E:rpage 2
   525 00000 0012 C        DCCR       ==  0X1E:rpage 2
   526       201E C                CMP3E     ==  DCCR.7
   526 00000 0742 C                CMP3E     ==  DCCR.7
   527       201E C                MCDC      ==  DCCR.6
   527 00000 0642 C                MCDC      ==  DCCR.6
   528       201E C                DCT2      ==  DCCR.4
   528 00000 0442 C                DCT2      ==  DCCR.4
   529       201E C                DCT1      ==  DCCR.3
   529 00000 0342 C                DCT1      ==  DCCR.3
   530       201E C                DCT0      ==  DCCR.2
   530 00000 0242 C                DCT0      ==  DCCR.2
   531       201E C                DCR1      ==  DCCR.1
   531 00000 0142 C                DCR1      ==  DCCR.1
   532       201E C                DCR0      ==  DCCR.0
   532 00000 0042 C                DCR0      ==  DCCR.0
   533            C        ;R1F DCVS (Discharge Voltage select Register ©Òπqπq¿£øÔæ‹±H¶sæπ)
   534       201F C        DCVS       ==  0X1F:rpage 2
   534 00000 0012 C        DCVS       ==  0X1F:rpage 2
   535       201F C                CMP3OPE   ==  DCVS.7
   535 00000 0742 C                CMP3OPE   ==  DCVS.7
   536       201F C                CMP3OUT   ==  DCVS.6
   536 00000 0642 C                CMP3OUT   ==  DCVS.6
   537       201F C                DCP       ==  DCVS.3
   537 00000 0342 C                DCP       ==  DCVS.3
   538       201F C                DCV2      ==  DCVS.2
   538 00000 0242 C                DCV2      ==  DCVS.2
   539       201F C                DCV1      ==  DCVS.1
   539 00000 0142 C                DCV1      ==  DCVS.1
   540       201F C                DCV0      ==  DCVS.0
   540 00000 0042 C                DCV0      ==  DCVS.0
   541            C        ;R20 PWMCCR (PWMC Control Register)
   542       2020 C        PWMCCR == 0X20:rpage 2
   542 00000 0012 C        PWMCCR == 0X20:rpage 2
   543       2020 C        	PWMCE == PWMCCR.7
   543 00000 0742 C        	PWMCE == PWMCCR.7
   544       2020 C        	PWMCRC == PWMCCR.6
   544 00000 0642 C        	PWMCRC == PWMCCR.6
   545       2020 C        	PWMCA == PWMCCR.5
   545 00000 0542 C        	PWMCA == PWMCCR.5
   546       2020 C        	TCEN == PWMCCR.4
   546 00000 0442 C        	TCEN == PWMCCR.4
   547       2020 C        	PWMCS == PWMCCR.3
   547 00000 0342 C        	PWMCS == PWMCCR.3
   548       2020 C        	TCP2 == PWMCCR.2
   548 00000 0242 C        	TCP2 == PWMCCR.2
   549       2020 C        	TCP1 == PWMCCR.1
   549 00000 0142 C        	TCP1 == PWMCCR.1
   550       2020 C        	TCP0 == PWMCCR.0
   550 00000 0042 C        	TCP0 == PWMCCR.0
   551       2021 C        PRDCL == 0X21:rpage 2
   551 00000 0012 C        PRDCL == 0X21:rpage 2
   552       2022 C        PRDCH == 0X22:rpage 2	
   552 00000 0012 C        PRDCH == 0X22:rpage 2	
   553       2023 C        DTCL == 0X23:rpage 2
   553 00000 0012 C        DTCL == 0X23:rpage 2
   554       2024 C        DTCH == 0X24:rpage 2
   554 00000 0012 C        DTCH == 0X24:rpage 2
   555       2025 C        TMRCL == 0X25:rpage 2
   555 00000 0012 C        TMRCL == 0X25:rpage 2
   556       2026 C        TMRCH == 0X26:rpage 2		
   556 00000 0012 C        TMRCH == 0X26:rpage 2		
   557       2027 C        AFPWMCCR1== 0X27:rpage 2
   557 00000 0012 C        AFPWMCCR1== 0X27:rpage 2
   558       2027 C        	AFPI2	== AFPWMCCR1.6
   558 00000 0642 C        	AFPI2	== AFPWMCCR1.6
   559       2027 C        	AFPI1	== AFPWMCCR1.5
   559 00000 0542 C        	AFPI1	== AFPWMCCR1.5
   560       2027 C        	AFPI0	== AFPWMCCR1.4
   560 00000 0442 C        	AFPI0	== AFPWMCCR1.4
   561       2027 C        	AFPD2	== AFPWMCCR1.2
   561 00000 0242 C        	AFPD2	== AFPWMCCR1.2
   562       2027 C        	AFPD1	== AFPWMCCR1.1
   562 00000 0142 C        	AFPD1	== AFPWMCCR1.1
   563       2027 C        	AFPD0	== AFPWMCCR1.0
   563 00000 0042 C        	AFPD0	== AFPWMCCR1.0
   564       2028 C        AFPWMCCR2== 0X28:rpage 2
   564 00000 0012 C        AFPWMCCR2== 0X28:rpage 2
   565       2028 C        	AFPM2	== AFPWMCCR2.7
   565 00000 0742 C        	AFPM2	== AFPWMCCR2.7
   566       2028 C        	AFPM1	== AFPWMCCR2.6
   566 00000 0642 C        	AFPM1	== AFPWMCCR2.6
   567       2028 C        	AFPM0	== AFPWMCCR2.5
   567 00000 0542 C        	AFPM0	== AFPWMCCR2.5
   568       2028 C        	AFPSS0	== AFPWMCCR2.4
   568 00000 0442 C        	AFPSS0	== AFPWMCCR2.4
   569       2028 C        	AFPCK3	== AFPWMCCR2.3
   569 00000 0342 C        	AFPCK3	== AFPWMCCR2.3
   570       2028 C        	AFPCK2	== AFPWMCCR2.2
   570 00000 0242 C        	AFPCK2	== AFPWMCCR2.2
   571       2028 C        	AFPCK1	== AFPWMCCR2.1
   571 00000 0142 C        	AFPCK1	== AFPWMCCR2.1
   572       2028 C        	AFPCK0	== AFPWMCCR2.0
   572 00000 0042 C        	AFPCK0	== AFPWMCCR2.0
   573       2029 C        AFDAL== 0X29:rpage 2
   573 00000 0012 C        AFDAL== 0X29:rpage 2
   574       202A C        AFDAH== 0X2A:rpage 2
   574 00000 0012 C        AFDAH== 0X2A:rpage 2
   575       202B C        AFDBL== 0X2B:rpage 2
   575 00000 0012 C        AFDBL== 0X2B:rpage 2
   576       202C C        AFDBH== 0X2C:rpage 2
   576 00000 0012 C        AFDBH== 0X2C:rpage 2
   577       202D C        PRDCL_T == 0X2D:rpage 2
   577 00000 0012 C        PRDCL_T == 0X2D:rpage 2
   578       202E C        PRDCH_T == 0X2E:rpage 2	
   578 00000 0012 C        PRDCH_T == 0X2E:rpage 2	
   579       202F C        DTCL_T == 0X2F:rpage 2
   579 00000 0012 C        DTCL_T == 0X2F:rpage 2
   580       2030 C        DTCH_T == 0X30:rpage 2
   580 00000 0012 C        DTCH_T == 0X30:rpage 2
   581            C        
   582       2040 C        COBS4       ==  0X40:rpage 2
   582 00000 0012 C        COBS4       ==  0X40:rpage 2
   583            C        ;R3E/COBS5 :Code Option Bit Selection Register5
   584       2041 C        COBS5       ==  0X41:rpage 2
   584 00000 0012 C        COBS5       ==  0X41:rpage 2
   585            C        ;R3F/COBS6 :Code Option Bit Selection Register6
   586       2042 C        COBS6       ==  0X42:rpage 2
   586 00000 0012 C        COBS6       ==  0X42:rpage 2
   587            C        ;R40/COBS7 :Code Option Bit Selection Register7
   588       2047 C        LOCKPR       ==  0X47:rpage 2
   588 00000 0012 C        LOCKPR       ==  0X47:rpage 2
   589            C        ;R41/COBS8 :Code Option Bit Selection Register8
   590       2048 C        LOCKCR       ==  0X48:rpage 2
   590 00000 0012 C        LOCKCR       ==  0X48:rpage 2
   591       2048 C        	LOCKEN	== LOCKCR.7
   591 00000 0742 C        	LOCKEN	== LOCKCR.7
    26                     ELSEIF(TARGET == 2)
    27                     	Include	"SD028.INC"
    28                     ELSE
    29                     	NOP
    30                     ENDIF
    31                     	
    32                     
    33                     ;================ General Purpose Register ===============
    34       0050          	TMP50	== 0x50
    35       0051          	TMP51	== 0x51
    36       0052          	TMP52	== 0x52
    37       0053          	TMP53	== 0x53
    38       0054          	TMP54	== 0x54
    39       0055          	TMP55	== 0x55
    40       0056          	TMP56	== 0x56
    41       0057          	TMP57	== 0x57
    42       0058          	TMP58	== 0x58
    43       0059          	TMP59	== 0x59
    44       005A          	TMP5A	== 0x5A
    45       005B          	TMP5B	== 0x5B
    46       005C          	TMP5C	== 0x5C
    47       005D          	TMP5D	== 0x5D
    48       005E          	TMP5E	== 0x5E
    49       005F          	TMP5F	== 0x5F
    50                     	
    51       005A          	INST	== 0x5A
    52                     
    53       0080          	TMP80	== 0x80
    54       0081          	TMP81	== 0x81
    55       0082          	TMP82	== 0x82
    56       0083          	TMP83	== 0x83
    57       0084          	TMP84	== 0x84
    58       0085          	TMP85	== 0x85
    59       0086          	TMP86	== 0x86
    60       0087          	TMP87	== 0x87
    61       0088          	TMP88	== 0x88
    62       0089          	TMP89	== 0x89
    63       008A          	TMP8A	== 0x8A
    64       008B          	TMP8B	== 0x8B
    65       008C          	TMP8C	== 0x8C
    66       008D          	TMP8D	== 0x8D
    67       008E          	TMP8E	== 0x8E
    68       008F          	TMP8F	== 0x8F
    69                     
    70                     ;================ Interrupt Vector Table =================
    71                     	ORG 	0x0000
    72 00000 5050          	JMP 	MAIN
    73                     	ORG		0x0002
    74 00002 506B          	JMP 	JMP_FAIL	;0x0030
    75 00003 506B          	JMP 	JMP_FAIL	;0x0031
    76 00004 506B          	JMP 	JMP_FAIL	;0x0032
    77 00005 506B          	JMP 	JMP_FAIL	;0x0033
    78 00006 506B          	JMP 	JMP_FAIL	;0x0034
    79 00007 506B          	JMP 	JMP_FAIL	;0x0035
    80 00008 506B          	JMP 	JMP_FAIL	;0x0036
    81 00009 506B          	JMP 	JMP_FAIL	;0x0037
    82 0000A 506B          	JMP 	JMP_FAIL	;0x0038
    83 0000B 506B          	JMP 	JMP_FAIL	;0x0039
    84 0000C 506B          	JMP 	JMP_FAIL	;0x003A
    85 0000D 506B          	JMP 	JMP_FAIL	;0x003B
    86 0000E 506B          	JMP 	JMP_FAIL	;0x003C
    87 0000F 506B          	JMP 	JMP_FAIL	;0x003D
    88 00010 506B          	JMP 	JMP_FAIL	;0x003E
    89 00011 506B          	JMP 	JMP_FAIL	;0x003F
    90 00012 506B          	JMP 	JMP_FAIL	;0x0040
    91 00013 506B          	JMP 	JMP_FAIL	;0x0041
    92 00014 506B          	JMP 	JMP_FAIL	;0x0042
    93 00015 506B          	JMP 	JMP_FAIL	;0x0043
    94 00016 506B          	JMP 	JMP_FAIL	;0x0044
    95 00017 506B          	JMP 	JMP_FAIL	;0x0045
    96 00018 506B          	JMP 	JMP_FAIL	;0x0046
    97 00019 506B          	JMP 	JMP_FAIL	;0x0047
    98 0001A 506B          	JMP 	JMP_FAIL	;0x0048
    99 0001B 506B          	JMP 	JMP_FAIL	;0x0049
   100 0001C 506B          	JMP 	JMP_FAIL	;0x004A
   101 0001D 506B          	JMP 	JMP_FAIL	;0x004B
   102 0001E 506B          	JMP 	JMP_FAIL	;0x004C
   103 0001F 506B          	JMP 	JMP_FAIL	;0x004D
   104 00020 506B          	JMP 	JMP_FAIL	;0x004E
   105 00021 506B          	JMP 	JMP_FAIL	;0x004F
   106                     ;==================== Main Function ======================
   107                     	ORG		0x0050
   108 00050               MAIN:
   109                     	;CALL 	EFT_INIT
   110 00050 4074          	CALL	SYS_INIT
   111 00051 4079          	CALL	GPIO_INIT
   112                     	;CALL	WAKE_INIT
   113                     	;CALL	KEY_DEBOUNCE
   114 00052 40A9          	CALL	RAM_SHA_INIT
   115 00053 40B3          	CALL	RAM_IND_INIT
   116 00054 40DC          	CALL	EEPROM_INIT
   117                     	;CALL	TEST_EEPROM (Do not loop forever)
   118                     	;CALL	TEST_FLASH (Do not loop forever)
   119 00055 6088          	MOV		A,@0x88
   120 00056 0121          	MOV		WDTCR,A
   121                     ;====================== BACK_GROUND_LOOP ================
   122 00057               BACK_GROUND_LOOP:
   123 00057 7A00          	SBANK	0
   124 00058 47F0          	CALL	TEST_STACK
   125 00059 40F2          	CALL	TEST_INST_ARITHEMATIC	;ADD, SUB, DAA, DEC, DECA, INC, INCA, ADC, SUBB, NEG
   126 0005A 449C          	CALL	TEST_INST_LOGIC_I		;AND, OR, COM, COMA, XOR, CLR, CLRA, BTG
   127 0005B 45CB          	CALL	TEST_INST_LOGIC_II		;RLC, RLCA, RRC, RRCA, RRA, RR, RLA, RL, XCH
   128 0005C 4693          	CALL	TEST_INST_TRANSFER		;MOV, SWAP, SWAPA
   129 0005D 46CB          	CALL	TEST_INST_MANIPULATION	;BC, BS, JBC, JBS
   130 0005E 46CC          	CALL	TEST_INST_BRANCH_I		;JC, JNC, JZ, JNZ, DJZ, DJZA, JZ, JZA
   131 0005F 470B          	CALL	TEST_INST_BRANCH_II		;JE R, JGE, JLE, JE K
   132 00060 474A          	CALL	TEST_INST_BRANCH_III	;CALL, JMP, LCALL, LJMP, RETL
   133 00061 4771          	CALL	TEST_INST_CONTROL		;ENI, DISI, WDTC, SLEP, NOP, RETI, RET
   134 00062 477C          	CALL	TEST_SHORT_BRANCH		;SJC, SJZ, SJNC, SJNZ
   135 00063 47C5          	CALL	TEST_READ_ROM			;TBRD, TBRDA
   136 00064 4F00          	CALL	TEST_RAM_BANK_0_5		;Write(0x55),Read(0x55),Clear(0x00)
   137 00065 4F17          	CALL	TEST_RAM_BANK_0_A		;Write(0xAA),Read(0xAA),Clear(0x00)
   138 00066 4F2E          	CALL	TEST_RAM_BANK_1_3		;Write(0x33),Read(0x33),Clear(0x00)
   139 00067 4F45          	CALL	TEST_RAM_BANK_1_C		;Write(0xCC),Read(0xCC),Clear(0x00)
   140 00068               	JMP_PASS:
   141 00068 0095          	BTG		P5,1
   142 00069 0004          	WDTC
   143 0006A 5057          	JMP		BACK_GROUND_LOOP
   144                     
   145                     ;====================== ERROR_LOOP =====================
   146 0006B               JMP_FAIL:
   147 0006B 7A00          	SBANK	0
   148 0006C 2205          	BC		P5,2
   149 0006D 506B          	JMP		JMP_FAIL
   150 0006E               RAM_FAIL:
   151 0006E 7A00          	SBANK	0
   152 0006F 2305          	BC		P5,3
   153 00070 506E          	JMP		RAM_FAIL
   154 00071               INS_FAIL:
   155 00071 7A00          	SBANK	0
   156 00072 2405          	BC		P5,4
   157 00073 5071          	JMP		INS_FAIL
   158                     
   159                     ;================== PEIPHERAL_INITIAL ==================
   160                     	;-------------------------------;
   161 00074               	SYS_INIT:	
   162 00074 7A00          		SBANK	0
   163                     		;BS		CPUS	;FSYS=FM
   164 00075 260E          		BC		IDLE	;SLEEP_MODE
   165 00076 6000          		MOV		A,@0x00
   166 00077 0114          		MOV		SFR1,A
   167 00078 0012          		RET
   168                     	;-------------------------------;		
   169 00079               	GPIO_INIT:
   170 00079 7A00          		SBANK	0
   171 0007A 0305          		CLR		P5
   172 0007B 60F0          		MOV		A,@0xF0
   173 0007C 010B          		MOV		IOCR5,A
   174 0007D 60FF          		MOV		A,@0xFF	;Turn-Off LED (Active-Low)
   175 0007E 0105          		MOV		P5,A
   176 0007F 0012          		RET
   177                     
   178                     	;-------------------------------;
   179 00080               	WAKE_INIT:
   180 00080 7A00          		SBANK	0
   181 00081 3B03          		JBS		P			; PWR ON reset(1)/RST pin reset(0)
   182 00082 5085          		JMP		$+3
   183 00083 2005          		BC		P5,0		; PWR ON reset,Light PWR_LED
   184 00084 0003          		SLEP
   185 00085 3B03          		JBS		P
   186 00086 5089          		JMP		$+3
   187 00087 2005          		BC		P5,0		; PWR ON reset,Light PWR_LED
   188 00088 0003          		SLEP
   189 00089 3B03          		JBS		P
   190 0008A 508D          		JMP		$+3
   191 0008B 2005          		BC		P5,0		; PWR ON reset,Light PWR_LED
   192 0008C 2005          		BC		P5,0		; PWR ON reset,Light PWR_LED
   193 0008D 0003          		SLEP		
   194 0008E 0012          		RET
   195                     	;-------------------------------;
   196 0008F               	KEY_DEBOUNCE:
   197 0008F 3D05          		JBS		P5,5		; Push, or not
   198 00090 5092          		JMP		$+2
   199 00091 508F          		JMP		$-2
   200 00092 3D05          		JBS		P5,5
   201 00093 508F          		JMP		KEY_DEBOUNCE
   202 00094 3D05          		JBS		P5,5
   203 00095 508F          		JMP		KEY_DEBOUNCE
   204 00096 3D05          		JBS		P5,5
   205 00097 508F          		JMP		KEY_DEBOUNCE
   206 00098 3D05          		JBS		P5,5
   207 00099 508F          		JMP		KEY_DEBOUNCE
   208 0009A 3D05          		JBS		P5,5
   209 0009B 508F          		JMP		KEY_DEBOUNCE
   210 0009C 3D05          		JBS		P5,5
   211 0009D 508F          		JMP		KEY_DEBOUNCE
   212 0009E 3D05          		JBS		P5,5
   213 0009F 508F          		JMP		KEY_DEBOUNCE
   214 000A0 3D05          		JBS		P5,5
   215 000A1 508F          		JMP		KEY_DEBOUNCE
   216 000A2 3D05          		JBS		P5,5
   217 000A3 508F          		JMP		KEY_DEBOUNCE
   218 000A4 3D05          		JBS		P5,5
   219 000A5 50A3          		JMP		$-2
   220 000A6 60FF          		MOV		A,@0xFF		; Turn Off all LED
   221 000A7 0105          		MOV		P5,A		
   222 000A8 0012          		RET
   223                     	;-------------------------------;
   224 000A9               	RAM_SHA_INIT:
   225 000A9 6050          		MOV		A,@0x50
   226 000AA 0104          		MOV		RSR,A
   227 000AB 60FF          		MOV		A,@0xFF		;RAM_SHA_LOOP
   228 000AC 0100          		MOV		IAR,A
   229 000AD 1504          		INC		RSR
   230 000AE 6080          		MOV		A,@0x80
   231 000AF 0C04          		XOR		A,RSR
   232 000B0 3A03          		JBS		Z
   233 000B1 50AB          		JMP		$-6
   234 000B2 0012          		RET
   235                     	;-------------------------------;		
   236 000B3               	RAM_IND_INIT:
   237 000B3 6080          		MOV		A,@0x80
   238 000B4 0104          		MOV		RSR,A
   239 000B5               		RAM_IND_LOOP_0:
   240 000B5 7A40          		GBANK	0
   241 000B6 60FF          		MOV		A,@0xFF
   242 000B7 0100          		MOV		IAR,A
   243 000B8 1504          		INC		RSR
   244 000B9 6000          		MOV		A,@0x00
   245 000BA 0C04          		XOR		A,RSR
   246 000BB 3A03          		JBS		Z
   247 000BC 50B5          		JMP		RAM_IND_LOOP_0
   248 000BD 6080          		MOV		A,@0x80
   249 000BE 0104          		MOV		RSR,A
   250 000BF               		RAM_IND_LOOP_1:
   251 000BF 7A41          		GBANK	1
   252 000C0 60FF          		MOV		A,@0xFF
   253 000C1 0100          		MOV		IAR,A
   254 000C2 1504          		INC		RSR
   255 000C3 6000          		MOV		A,@0x00
   256 000C4 0C04          		XOR		A,RSR
   257 000C5 3A03          		JBS		Z
   258 000C6 50BF          		JMP		RAM_IND_LOOP_1
   259 000C7 6080          		MOV		A,@0x80
   260 000C8 0104          		MOV		RSR,A
   261 000C9               		RAM_IND_LOOP_2:
   262 000C9 7A42          		GBANK	2
   263 000CA 60FF          		MOV		A,@0xFF
   264 000CB 0100          		MOV		IAR,A
   265 000CC 1504          		INC		RSR
   266 000CD 6000          		MOV		A,@0x00
   267 000CE 0C04          		XOR		A,RSR
   268 000CF 3A03          		JBS		Z
   269 000D0 50C9          		JMP		RAM_IND_LOOP_2
   270 000D1 6080          		MOV		A,@0x80
   271 000D2 0104          		MOV		RSR,A
   272 000D3               		RAM_IND_LOOP_3:
   273 000D3 7A43          		GBANK	3
   274 000D4 60FF          		MOV		A,@0xFF
   275 000D5 0100          		MOV		IAR,A
   276 000D6 1504          		INC		RSR
   277 000D7 6000          		MOV		A,@0x00
   278 000D8 0C04          		XOR		A,RSR
   279 000D9 3A03          		JBS		Z
   280 000DA 50D3          		JMP		RAM_IND_LOOP_3
   281 000DB 0012          		RET
   282                     	;-------------------------------;
   283 000DC               	EEPROM_INIT:
   284 000DC 6080          		MOV		A,@0x80
   285 000DD 0141          		MOV		EECR2,A
   286 000DE 1000          		MOV		A,0x00
   287 000DF 0150          		MOV		TMP50,A
   288 000E0               		EEPROM_INIT_LOOP:
   289 000E0 1050          		MOV		A,TMP50
   290 000E1 0142          		MOV		EERA,A
   291 000E2 60FF          		MOV		A,@0xFF
   292 000E3 0143          		MOV		EERD,A
   293 000E4 1550          		INC		TMP50
   294 000E5 1080          		MOV		A,0x80
   295 000E6 0C50          		XOR		A,TMP50
   296 000E7 3A03          		JBS		Z
   297 000E8 50E0          		JMP		EEPROM_INIT_LOOP
   298 000E9 0012          		RET
   299                     	;-------------------------------;
   300 000EA               	STATUS_CLEAR:
   301 000EA 6000          		MOV		A,@0x00
   302 000EB 0103          		MOV		STATUS,A
   303 000EC 0012          		RET
   304                     	;-------------------------------;
   305 000ED               	INST_XOR_JUDGE:
   306 000ED 3A03          		JBS		Z			; IF(Z=1) BRANCH
   307 000EE 5071          		JMP		INS_FAIL
   308 000EF 3603          		JBC		N			; IF(N=0) BRANCH
   309 000F0 5071          		JMP		INS_FAIL
   310 000F1 0012          		RET
   311                     
   312                     ;================== Jmp Sub Function ==================
   313 000F2               	TEST_INST_ARITHEMATIC:
   314 000F2               		INST_DAA:			;-------Instruction Test => DAA , C?
   315 000F2 6001          			MOV		A,@0x01
   316 000F3 015A          			MOV		INST,A
   317 000F4 40EA          			CALL	STATUS_CLEAR	;-------DAA(0xAA)=10
   318 000F5 60AA          			MOV		A,@0xAA
   319 000F6 0001          			DAA
   320 000F7 3803          			JBS		C			; Check C = 1?
   321 000F8 5071          			JMP	INS_FAIL
   322 000F9 3103          			JBC		DC			; Check DC = 0?
   323 000FA 5071          			JMP	INS_FAIL
   324 000FB 3203          			JBC		Z			; Check Z = 0?
   325 000FC 5071          			JMP	INS_FAIL
   326 000FD 3503          			JBC		OV			; Check OV = 0?
   327 000FE 5071          			JMP	INS_FAIL
   328 000FF 3603          			JBC		N			; Check N = 0?
   329 00100 5071          			JMP	INS_FAIL
   330 00101 6C10          			XOR		A,@0x10		; Check Result ?
   331 00102 3A03          			JBS		Z			; Check Z = 1?
   332 00103 5071          			JMP	INS_FAIL
   333 00104 3603          			JBC		N			; Check N = 0?
   334 00105 5071          			JMP	INS_FAIL
   335 00106 40EA          			CALL	STATUS_CLEAR	;-------DAA(0xFF)=65
   336 00107 6080          			MOV		A,@0x80
   337 00108 0150          			MOV		0x50,A		; [0x50] = 0x80
   338 00109 607F          			MOV		A,@0x7F		; 
   339 0010A 0E50          			ADD		A,0x50		; A = 0x7F + 0x80 = 0xFF
   340 0010B 0001          			DAA
   341 0010C 3803          			JBS		C			; Check C = 1?
   342 0010D 5071          			JMP	INS_FAIL
   343 0010E 3103          			JBC		DC			; Check DC = 0?
   344 0010F 5071          			JMP	INS_FAIL
   345 00110 3203          			JBC		Z			; Check Z = 0?
   346 00111 5071          			JMP	INS_FAIL
   347 00112 3503          			JBC		OV			; Check OV = 0?
   348 00113 5071          			JMP	INS_FAIL
   349 00114 3E03          			JBS		N			; Check N = 1?	; Result is Negative
   350 00115 5071          			JMP	INS_FAIL
   351 00116 2203          			BC		Z
   352 00117 2603          			BC		N
   353 00118 6C65          			XOR		A,@0x65		; Check Result ?
   354 00119 3A03          			JBS		Z			; Check Z = 1?
   355 0011A 5071          			JMP	INS_FAIL
   356 0011B 3603          			JBC		N			; Check N = 0?
   357 0011C 5071          			JMP	INS_FAIL
   358 0011D 0000          			NOP
   359 0011E 6000          			MOV		A,@0x00
   360 0011F 0103          			MOV		STATUS,A
   361                     			;-------DAA(0x00)=66
   362 00120 2803          			BS		C
   363 00121 6080          			MOV		A,@0x80
   364 00122 0150          			MOV		0x50,A		; [0x50] = 0x80
   365 00123 607F          			MOV		A,@0x7F		; 
   366 00124 7E50          			ADC		A,0x50		; A = 0x7F + 0x80
   367 00125 0001          			DAA
   368 00126 3803          			JBS		C			; Check C = 1? 	/ By ADC
   369 00127 5071          			JMP	INS_FAIL
   370 00128 3903          			JBS		DC			; Check DC = 1? / By ADC
   371 00129 5071          			JMP	INS_FAIL
   372 0012A 3A03          			JBS		Z			; Check Z = 1? 	/ By ADC
   373 0012B 5071          			JMP	INS_FAIL
   374 0012C 3503          			JBC		OV			; Check OV = 0?
   375 0012D 5071          			JMP	INS_FAIL
   376 0012E 3603          			JBC		N			; Check N = 0?
   377 0012F 5071          			JMP	INS_FAIL
   378 00130 6C66          			XOR		A,@0x66		; Check Result ?
   379 00131 3A03          			JBS		Z			; Check Z = 1?
   380 00132 5071          			JMP	INS_FAIL
   381 00133 3603          			JBC		N			; Check N = 0?
   382 00134 5071          			JMP	INS_FAIL
   383 00135 6000          			MOV		A,@0x00
   384 00136 0103          			MOV		STATUS,A
   385                     			;-------DAA(0x80)=E6
   386 00137 60FF          			MOV		A,@0xFF
   387 00138 0150          			MOV		0x50,A		; [0x50] = 0xFF
   388 00139 607F          			MOV		A,@0x7F		; 
   389 0013A 0450          			SUB		A,0x50		; A = 0xFF - 0x7F
   390 0013B 0001          			DAA
   391 0013C 3803          			JBS		C			; Check C = 1? 	/ By SUB
   392 0013D 5071          			JMP	INS_FAIL
   393 0013E 3903          			JBS		DC			; Check DC = 1? / By SUB
   394 0013F 5071          			JMP	INS_FAIL
   395 00140 3203          			JBC		Z			; Check Z = 0?
   396 00141 5071          			JMP	INS_FAIL
   397 00142 3503          			JBC		OV			; Check OV = 0?
   398 00143 5071          			JMP	INS_FAIL
   399 00144 3E03          			JBS		N			; Check N = 1?	; Result is Negative
   400 00145 5071          			JMP	INS_FAIL
   401 00146 2203          			BC		Z
   402 00147 2603          			BC		N
   403 00148 6CE6          			XOR		A,@0xE6		; Check Result ?
   404 00149 3A03          			JBS		Z			; Check Z = 1?
   405 0014A 5071          			JMP	INS_FAIL
   406 0014B 3603          			JBC		N			; Check N = 0?
   407 0014C 5071          			JMP	INS_FAIL
   408                     
   409                     		
   410 0014D               		INST_CLA:			;-------Instruction Test => CLA
   411 0014D 6008          			MOV		A,@0x08
   412 0014E 015A          			MOV		INST,A
   413 0014F 605A          			MOV		A,@0x5A
   414 00150 6C5A          			XOR		A,@0x5A		; Check Result ?
   415 00151 3A03          			JBS		Z			; Check Z = 1?
   416 00152 5071          			JMP	INS_FAIL
   417 00153 3603          			JBC		N			; Check N = 0?
   418 00154 5071          			JMP	INS_FAIL
   419 00155 605A          			MOV		A,@0x5A
   420 00156 0200          			CLRA
   421 00157 3A03          			JBS		Z			; Check Z = 1?
   422 00158 5071          			JMP	INS_FAIL
   423 00159 2203          			BC		Z
   424 0015A 6C00          			XOR		A,@0x00		; Check Result ?
   425 0015B 3A03          			JBS		Z			; Check Z = 1?
   426 0015C 5071          			JMP	INS_FAIL
   427 0015D 3603          			JBC		N			; Check N = 0?
   428 0015E 5071          			JMP	INS_FAIL
   429 0015F               		INST_CLR:			;-------Instruction Test => CLR
   430 0015F 6009          			MOV		A,@0x09
   431 00160 015A          			MOV		INST,A
   432 00161 60AA          			MOV		A,@0xAA
   433 00162 0150          			MOV		0x50,A
   434 00163 1050          			MOV		A,0x50
   435 00164 6CAA          			XOR		A,@0xAA		; Check Result ?
   436 00165 3A03          			JBS		Z			; Check Z = 1?
   437 00166 5071          			JMP	INS_FAIL
   438 00167 3603          			JBC		N			; Check N = 0?
   439 00168 5071          			JMP	INS_FAIL
   440 00169 0350          			CLR		0x50
   441 0016A 3A03          			JBS		Z			; Check Z = 1?
   442 0016B 5071          			JMP	INS_FAIL
   443 0016C 2203          			BC		Z
   444 0016D 1050          			MOV		A,0x50
   445 0016E 6C00          			XOR		A,@0x00		; Check Result ?
   446 0016F 3A03          			JBS		Z			; Check Z = 1?
   447 00170 5071          			JMP	INS_FAIL
   448 00171 3603          			JBC		N			; Check N = 0?
   449 00172 5071          			JMP	INS_FAIL
   450 00173               		INST_SUB_A_R:		;-------Instruction Test => SUB A,R
   451 00173 600A          			MOV		A,@0x0A
   452 00174 015A          			MOV		INST,A
   453 00175 6000          			MOV		A,@0x00
   454 00176 0103          			MOV		STATUS,A
   455 00177 6002          			MOV		A,@0x02		; SUB(2-1)=1
   456 00178 0150          			MOV		0x50,A		; [0x50] = 0x02
   457 00179 6001          			MOV		A,@0x01
   458 0017A 0450          			SUB		A,0x50		; A = [0x50] - A
   459 0017B 3803          			JBS		C			; Check C = 1? 	; Resulet is Positive
   460 0017C 5071          			JMP	INS_FAIL
   461 0017D 3903          			JBS		DC			; Check DC = 1?	; Low-Byte is Positve
   462 0017E 5071          			JMP	INS_FAIL
   463 0017F 3203          			JBC		Z			; Check Z = 0?
   464 00180 5071          			JMP	INS_FAIL
   465 00181 3503          			JBC		OV			; Check OV = 0?
   466 00182 5071          			JMP	INS_FAIL
   467 00183 3603          			JBC		N			; Check N = 0?
   468 00184 5071          			JMP	INS_FAIL
   469 00185 2203          			BC		Z
   470 00186 6C01          			XOR		A,@0x01		; Check Result ?
   471 00187 3A03          			JBS		Z			; Check Z = 1?
   472 00188 5071          			JMP	INS_FAIL
   473 00189 3603          			JBC		N			; Check N = 0?
   474 0018A 5071          			JMP	INS_FAIL
   475 0018B 6000          			MOV		A,@0x00
   476 0018C 0103          			MOV		STATUS,A
   477 0018D 6002          			MOV		A,@0x02		; SUB(2-2)=0
   478 0018E 0150          			MOV		0x50,A		; [0x50] = 0x02
   479 0018F 6002          			MOV		A,@0x02
   480 00190 0450          			SUB		A,0x50		; A = [0x50] - A
   481 00191 3803          			JBS		C			; Check C = 1?	; Result is Positive
   482 00192 5071          			JMP	INS_FAIL
   483 00193 3903          			JBS		DC			; Check DC = 1?	; Low-Byte is Positve
   484 00194 5071          			JMP	INS_FAIL
   485 00195 3A03          			JBS		Z			; Check Z = 1?	; Result is Zero
   486 00196 5071          			JMP	INS_FAIL
   487 00197 3503          			JBC		OV			; Check OV = 0?
   488 00198 5071          			JMP	INS_FAIL
   489 00199 3603          			JBC		N			; Check N = 0?
   490 0019A 5071          			JMP	INS_FAIL
   491 0019B 2203          			BC		Z
   492 0019C 6C00          			XOR		A,@0x00		; Check Result ?
   493 0019D 3A03          			JBS		Z			; Check Z = 1?
   494 0019E 5071          			JMP	INS_FAIL
   495 0019F 3603          			JBC		N			; Check N = 0?
   496 001A0 5071          			JMP	INS_FAIL
   497 001A1 6000          			MOV		A,@0x00
   498 001A2 0103          			MOV		STATUS,A
   499 001A3 60FF          			MOV		A,@0xFF		; SUB(-1-127) = -128(0x80)
   500 001A4 0150          			MOV		0x50,A		; [0x50] = 0xFF
   501 001A5 607F          			MOV		A,@0x7F
   502 001A6 0450          			SUB		A,0x50		; A = [0x50] - A
   503 001A7 3803          			JBS		C			; Check C = 1?
   504 001A8 5071          			JMP	INS_FAIL
   505 001A9 3903          			JBS		DC			; Check DC = 1?
   506 001AA 5071          			JMP	INS_FAIL
   507 001AB 3203          			JBC		Z			; Check Z = 0?
   508 001AC 5071          			JMP	INS_FAIL
   509 001AD 3503          			JBC		OV			; Check OV = 0?
   510 001AE 5071          			JMP	INS_FAIL
   511 001AF 3E03          			JBS		N			; Check N = 1?
   512 001B0 5071          			JMP	INS_FAIL
   513 001B1 2203          			BC		Z
   514 001B2 2603          			BC		N
   515 001B3 6C80          			XOR		A,@0x80		; Check Result ?
   516 001B4 3A03          			JBS		Z			; Check Z = 1?
   517 001B5 5071          			JMP	INS_FAIL
   518 001B6 3603          			JBC		N			; Check N = 0?
   519 001B7 5071          			JMP	INS_FAIL
   520 001B8 6000          			MOV		A,@0x00
   521 001B9 0103          			MOV		STATUS,A
   522 001BA 6080          			MOV		A,@0x80		; SUB(-128-127) = 1(0x01)
   523 001BB 0150          			MOV		0x50,A		; [0x50] = 0x80
   524 001BC 607F          			MOV		A,@0x7F
   525 001BD 0450          			SUB		A,0x50		; A = [0x50] - A
   526 001BE 3803          			JBS		C			; Check C = 1?
   527 001BF 5071          			JMP	INS_FAIL
   528 001C0 3103          			JBC		DC			; Check DC = 0?
   529 001C1 5071          			JMP	INS_FAIL
   530 001C2 3203          			JBC		Z			; Check Z = 0?
   531 001C3 5071          			JMP	INS_FAIL
   532 001C4 3D03          			JBS		OV			; Check OV = 1?
   533 001C5 5071          			JMP	INS_FAIL
   534 001C6 3603          			JBC		N			; Check N = 0?
   535 001C7 5071          			JMP	INS_FAIL
   536 001C8 2203          			BC		Z
   537 001C9 2603          			BC		N
   538 001CA 6C01          			XOR		A,@0x01		; Check Result ?
   539 001CB 3A03          			JBS		Z			; Check Z = 1?
   540 001CC 5071          			JMP	INS_FAIL
   541 001CD 3603          			JBC		N			; Check N = 0?
   542 001CE 5071          			JMP	INS_FAIL
   543 001CF 6000          			MOV		A,@0x00
   544 001D0 0103          			MOV		STATUS,A
   545 001D1 6001          			MOV		A,@0x01		; SUB(1-3) = -2(0xFE)
   546 001D2 0150          			MOV		0x50,A		; [0x50] = 0x01
   547 001D3 6003          			MOV		A,@0x03
   548 001D4 0450          			SUB		A,0x50		; A = [0x50] - A
   549 001D5 3003          			JBC		C			; Check C = 0?
   550 001D6 5071          			JMP	INS_FAIL
   551 001D7 3103          			JBC		DC			; Check DC = 0?
   552 001D8 5071          			JMP	INS_FAIL
   553 001D9 3203          			JBC		Z			; Check Z = 0?
   554 001DA 5071          			JMP	INS_FAIL
   555 001DB 3503          			JBC		OV			; Check OV = 0?
   556 001DC 5071          			JMP	INS_FAIL
   557 001DD 3E03          			JBS		N			; Check N = 1?
   558 001DE 5071          			JMP	INS_FAIL
   559 001DF 2203          			BC		Z
   560 001E0 2603          			BC		N
   561 001E1 6CFE          			XOR		A,@0xFE		; Check Result ?
   562 001E2 3A03          			JBS		Z			; Check Z = 1?
   563 001E3 5071          			JMP	INS_FAIL
   564 001E4 3603          			JBC		N			; Check N = 0?
   565 001E5 5071          			JMP	INS_FAIL
   566 001E6               		INST_SUB_R_A:		;-------Instruction Test => SUB R,A
   567 001E6 600B          			MOV		A,@0x0B
   568 001E7 015A          			MOV		INST,A
   569 001E8 6000          			MOV		A,@0x00
   570 001E9 0103          			MOV		STATUS,A
   571 001EA 6002          			MOV		A,@0x02
   572 001EB 0150          			MOV		0x50,A		; [0x50] = 0x02
   573 001EC 6001          			MOV		A,@0x01
   574 001ED 0550          			SUB		0x50,A		; [0x50] = [0x50] - 0x01
   575 001EE 1003          			MOV		A,STATUS
   576 001EF 6C1B          			XOR		A,@0x1B		; for non reset
   577                     			;;XOR		A,@0x13
   578 001F0 40ED          			CALL	INST_XOR_JUDGE
   579 001F1 2203          			BC		Z
   580 001F2 2603          			BC		N
   581 001F3 1050          			MOV		A,0x50
   582 001F4 6C01          			XOR		A,@0x01		; Check Result ?
   583 001F5 40ED          			CALL	INST_XOR_JUDGE
   584 001F6 6000          			MOV		A,@0x00
   585 001F7 0103          			MOV		STATUS,A
   586 001F8 6002          			MOV		A,@0x02
   587 001F9 0150          			MOV		0x50,A		; [0x50] = 0x02
   588 001FA 6002          			MOV		A,@0x02
   589 001FB 0550          			SUB		0x50,A		; [0x50] = [0x50] - 0x02
   590 001FC 1003          			MOV		A,STATUS
   591 001FD 6C1F          			XOR		A,@0x1F		; for nono reset
   592                     			;;XOR		A,@0x17
   593 001FE 40ED          			CALL	INST_XOR_JUDGE
   594 001FF 2203          			BC		Z
   595 00200 2603          			BC		N
   596 00201 1050          			MOV		A,0x50
   597 00202 6C00          			XOR		A,@0x00		; Check Result ?
   598 00203 3A03          			JBS		Z			; Check Z = 1?
   599 00204 5071          			JMP	INS_FAIL
   600 00205 3603          			JBC		N			; Check N = 0?
   601 00206 5071          			JMP	INS_FAIL
   602 00207 6000          			MOV		A,@0x00
   603 00208 0103          			MOV		STATUS,A
   604 00209 6080          			MOV		A,@0x80
   605 0020A 0150          			MOV		0x50,A		; [0x50] = 0x80
   606 0020B 6001          			MOV		A,@0x01
   607 0020C 0550          			SUB		0x50,A		; [0x50] = [0x50] - 0x01
   608 0020D 1003          			MOV		A,STATUS
   609 0020E 6C39          			XOR		A,@0x39	;; for non reset
   610                     			;;XOR		A,@0x31
   611 0020F 40ED          			CALL	INST_XOR_JUDGE
   612 00210 2203          			BC		Z
   613 00211 2603          			BC		N
   614 00212 1050          			MOV		A,0x50
   615 00213 6C7F          			XOR		A,@0x7F		; Check Result ?
   616 00214 40ED          			CALL	INST_XOR_JUDGE
   617 00215               		INST_SUB_A_K:		;-------Instruction Test => SUB A,k
   618 00215 6030          			MOV		A,@0x30
   619 00216 015A          			MOV		INST,A
   620 00217 40EA          			CALL	STATUS_CLEAR
   621 00218 60FF          			MOV		A,@0xFF		; 0xFF-0xFF
   622 00219 74FF          			SUB		A,@0xFF		; A = 0xFF - 0xFF
   623 0021A 3803          			JBS		C			; Check C = 1?
   624 0021B 5071          			JMP	INS_FAIL
   625 0021C 3903          			JBS		DC			; Check DC = 1?
   626 0021D 5071          			JMP	INS_FAIL
   627 0021E 3A03          			JBS		Z			; Check Z = 1?
   628 0021F 5071          			JMP	INS_FAIL
   629 00220 3503          			JBC		OV			; Check OV = 0?
   630 00221 5071          			JMP	INS_FAIL
   631 00222 3603          			JBC		N			; Check N = 0?
   632 00223 5071          			JMP	INS_FAIL
   633 00224 6C00          			XOR		A,@0x00		; Check Result ?
   634 00225 40ED          			CALL	INST_XOR_JUDGE
   635 00226 40EA          			CALL	STATUS_CLEAR
   636 00227 607F          			MOV		A,@0x7F		; 0x00-0x7F
   637 00228 7400          			SUB		A,@0x00		; A = 0x00 - 0x7F
   638 00229 3003          			JBC		C			; Check C = 0?
   639 0022A 5071          			JMP	INS_FAIL
   640 0022B 3103          			JBC		DC			; Check DC = 0?
   641 0022C 5071          			JMP	INS_FAIL
   642 0022D 3203          			JBC		Z			; Check Z = 0?
   643 0022E 5071          			JMP	INS_FAIL
   644 0022F 3503          			JBC		OV			; Check OV = 0?
   645 00230 5071          			JMP	INS_FAIL
   646 00231 3E03          			JBS		N			; Check N = 1?
   647 00232 5071          			JMP	INS_FAIL
   648 00233 6C81          			XOR		A,@0x81		; Check Result ?
   649 00234 40ED          			CALL	INST_XOR_JUDGE
   650 00235 40EA          			CALL	STATUS_CLEAR
   651 00236 6001          			MOV		A,@0x01		; 0x80-0x01
   652 00237 7480          			SUB		A,@0x80		; A = 0x80 - 0x01
   653 00238 3803          			JBS		C			; Check C = 1?
   654 00239 5071          			JMP	INS_FAIL
   655 0023A 3103          			JBC		DC			; Check DC = 0?
   656 0023B 5071          			JMP	INS_FAIL
   657 0023C 3203          			JBC		Z			; Check Z = 0?
   658 0023D 5071          			JMP	INS_FAIL
   659 0023E 3D03          			JBS		OV			; Check OV = 1?
   660 0023F 5071          			JMP	INS_FAIL
   661 00240 3603          			JBC		N			; Check N = 0?
   662 00241 5071          			JMP	INS_FAIL
   663 00242 6C7F          			XOR		A,@0x7F		; Check Result ?
   664 00243 40ED          			CALL	INST_XOR_JUDGE
   665 00244               		INST_SUBB_A_R:		;-------Instruction Test => SUBB A,R
   666 00244 6031          			MOV		A,@0x31
   667 00245 015A          			MOV		INST,A
   668 00246 40EA          			CALL	STATUS_CLEAR
   669 00247 2003          			BC		C			; B = 1
   670 00248 6000          			MOV		A,@0x00		;0x00-0xF
   671 00249 0150          			MOV		0x50,A		; [0x50] = 0x00
   672 0024A 60FF          			MOV		A,@0xFF		; A = 0x01
   673 0024B 7850          			SUBB	A,0x50		; A = [0x50] - A - B
   674 0024C 3003          			JBC		C			; Check C = 0?
   675 0024D 5071          			JMP	INS_FAIL
   676 0024E 3103          			JBC		DC			; Check DC = 0?
   677 0024F 5071          			JMP	INS_FAIL
   678 00250 3A03          			JBS		Z			; Check Z = 1?
   679 00251 5071          			JMP	INS_FAIL
   680 00252 3503          			JBC		OV			; Check OV = 0?
   681 00253 5071          			JMP	INS_FAIL
   682 00254 3603          			JBC		N			; Check N = 0?
   683 00255 5071          			JMP	INS_FAIL
   684 00256 6C00          			XOR		A,@0x00		; Check Result ?
   685 00257 40ED          			CALL	INST_XOR_JUDGE	
   686 00258 40EA          			CALL	STATUS_CLEAR
   687 00259 2003          			BC		C			; B = 1
   688 0025A 6000          			MOV		A,@0x00		; 0x00-0x7F
   689 0025B 0150          			MOV		0x50,A		; [0x50] = 0x00
   690 0025C 607F          			MOV		A,@0x7F		; A = 0x01
   691 0025D 7850          			SUBB	A,0x50		; A = [0x50] - A - B
   692 0025E 3003          			JBC		C			; Check C = 0?
   693 0025F 5071          			JMP	INS_FAIL
   694 00260 3103          			JBC		DC			; Check DC = 0?
   695 00261 5071          			JMP	INS_FAIL
   696 00262 3203          			JBC		Z			; Check Z = 0?
   697 00263 5071          			JMP	INS_FAIL
   698 00264 3503          			JBC		OV			; Check OV = 0?
   699 00265 5071          			JMP	INS_FAIL
   700 00266 3E03          			JBS		N			; Check N = 1?
   701 00267 5071          			JMP	INS_FAIL
   702 00268 6C80          			XOR		A,@0x80		; Check Result ?
   703 00269 40ED          			CALL	INST_XOR_JUDGE
   704 0026A 40EA          			CALL	STATUS_CLEAR
   705 0026B 2003          			BC		C			; B = 1
   706 0026C 6080          			MOV		A,@0x80		; 0x80-0x01
   707 0026D 0150          			MOV		0x50,A		; [0x50] = 0x80
   708 0026E 6001          			MOV		A,@0x01		; A = 0x01
   709 0026F 7850          			SUBB	A,0x50		; A = [0x50] - A - B
   710 00270 3803          			JBS		C			; Check C = 1?
   711 00271 5071          			JMP	INS_FAIL
   712 00272 3103          			JBC		DC			; Check DC = 0?
   713 00273 5071          			JMP	INS_FAIL
   714 00274 3203          			JBC		Z			; Check Z = 0?
   715 00275 5071          			JMP	INS_FAIL
   716 00276 3D03          			JBS		OV			; Check OV = 1?
   717 00277 5071          			JMP	INS_FAIL
   718 00278 3603          			JBC		N			; Check N = 0?
   719 00279 5071          			JMP	INS_FAIL
   720 0027A 6C7E          			XOR		A,@0x7E		; Check Result ?
   721 0027B 40ED          			CALL	INST_XOR_JUDGE
   722 0027C               		INST_SUBB_R_A:			;-------Instruction Test => SUBB R,A
   723 0027C 6032          			MOV		A,@0x32
   724 0027D 015A          			MOV		INST,A
   725 0027E 40EA          			CALL	STATUS_CLEAR
   726 0027F 2003          			BC		C			; B = 1
   727 00280 6000          			MOV		A,@0x00		; 0x00-0xFF
   728 00281 0150          			MOV		0x50,A		; [0x50] = 0x00
   729 00282 60FF          			MOV		A,@0xFF
   730 00283 7950          			SUBB	0x50,A		; [0x50] = 0x00 - 0xFF - B
   731 00284 1003          			MOV		A,STATUS
   732 00285 6C1C          			XOR		A,@0x1C		; Check Status ?
   733                     			;;XOR		A,@0x14		; Check Status ?
   734 00286 40ED          			CALL	INST_XOR_JUDGE
   735 00287 1050          			MOV		A,0x50
   736 00288 6C00          			XOR		A,@0x00		; Check Result ?
   737 00289 40ED          			CALL	INST_XOR_JUDGE
   738 0028A 40EA          			CALL	STATUS_CLEAR
   739 0028B 2003          			BC		C			; B = 1
   740 0028C 6000          			MOV		A,@0x00		; 0x00-0x7F
   741 0028D 0150          			MOV		0x50,A		; [0x50] = 0x00
   742 0028E 607F          			MOV		A,@0x7F
   743 0028F 7950          			SUBB	0x50,A		; [0x50] = 0x00 - 0x7F - B
   744 00290 1003          			MOV		A,STATUS
   745 00291 6C58          			XOR		A,@0x58		; Check Status ?
   746                     			;;XOR		A,@0x50		; Check Status ?
   747 00292 40ED          			CALL	INST_XOR_JUDGE
   748 00293 1050          			MOV		A,0x50
   749 00294 6C80          			XOR		A,@0x80		; Check Result ?
   750 00295 40ED          			CALL	INST_XOR_JUDGE
   751 00296 40EA          			CALL	STATUS_CLEAR
   752 00297 2003          			BC		C			; B = 1
   753 00298 6080          			MOV		A,@0x80		; ,0x80-0x01
   754 00299 0150          			MOV		0x50,A		; [0x50] = 0x80
   755 0029A 6001          			MOV		A,@0x01
   756 0029B 7950          			SUBB	0x50,A		; [0x50] = 0x80 - 0x01 - B
   757 0029C 1003          			MOV		A,STATUS
   758 0029D 6C39          			XOR		A,@0x39		; Check Status ?
   759                     			;;XOR		A,@0x31		; Check Status ?
   760 0029E 40ED          			CALL	INST_XOR_JUDGE
   761 0029F 1050          			MOV		A,0x50
   762 002A0 6C7E          			XOR		A,@0x7E		; Check Result ?
   763 002A1 40ED          			CALL	INST_XOR_JUDGE
   764                     
   765 002A2               		INST_DECA:			;-------Instruction Test => DECA R
   766 002A2 600C          			MOV		A,@0x0C
   767 002A3 015A          			MOV		INST,A
   768 002A4 6000          			MOV		A,@0x00
   769 002A5 0103          			MOV		STATUS,A
   770 002A6 6020          			MOV		A,@0x20		; 0x20-1
   771 002A7 0150          			MOV		0x50,A		; [0x50] = 0x20
   772 002A8 0650          			DECA	0x50		; A = [0x50] - 1
   773 002A9 3803          			JBS		C			; Check C = 1?	; Result is Positive
   774 002AA 5071          			JMP	INS_FAIL
   775 002AB 3103          			JBC		DC			; Check DC = 0?
   776 002AC 5071          			JMP	INS_FAIL
   777 002AD 3203          			JBC		Z			; Check Z = 0?
   778 002AE 5071          			JMP	INS_FAIL
   779 002AF 3503          			JBC		OV			; Check OV = 0?
   780 002B0 5071          			JMP	INS_FAIL
   781 002B1 3603          			JBC		N			; Check N = 0?
   782 002B2 5071          			JMP	INS_FAIL
   783 002B3 6C1F          			XOR		A,@0x1F		; Check Result ?
   784 002B4 3A03          			JBS		Z			; Check Z = 1?
   785 002B5 5071          			JMP	INS_FAIL
   786 002B6 3603          			JBC		N			; Check N = 0?
   787 002B7 5071          			JMP	INS_FAIL
   788 002B8 6000          			MOV		A,@0x00
   789 002B9 0103          			MOV		STATUS,A
   790 002BA 6001          			MOV		A,@0x01		; 0x01-1
   791 002BB 0150          			MOV		0x50,A		; [0x50] = 0x01
   792 002BC 0650          			DECA	0x50		; A = [0x50] - 1
   793 002BD 3803          			JBS		C			; Check C = 1?	; Result is Positive
   794 002BE 5071          			JMP	INS_FAIL
   795 002BF 3903          			JBS		DC			; Check DC = 1?
   796 002C0 5071          			JMP	INS_FAIL
   797 002C1 3A03          			JBS		Z			; Check Z = 1?
   798 002C2 5071          			JMP	INS_FAIL
   799 002C3 3503          			JBC		OV			; Check OV = 0?
   800 002C4 5071          			JMP	INS_FAIL
   801 002C5 3603          			JBC		N			; Check N = 0?
   802 002C6 5071          			JMP	INS_FAIL
   803 002C7 2203          			BC		Z
   804 002C8 6C00          			XOR		A,@0x00		; Check Result ?
   805 002C9 3A03          			JBS		Z			; Check Z = 1?
   806 002CA 5071          			JMP	INS_FAIL
   807 002CB 3603          			JBC		N			; Check N = 0?
   808 002CC 5071          			JMP	INS_FAIL
   809 002CD 6000          			MOV		A,@0x00
   810 002CE 0103          			MOV		STATUS,A
   811 002CF 6000          			MOV		A,@0x00		; 0x00-1
   812 002D0 0150          			MOV		0x50,A		; [0x50] = 0x00
   813 002D1 0650          			DECA	0x50		; A = [0x50] - 1
   814 002D2 3003          			JBC		C			; Check C = 0?
   815 002D3 5071          			JMP	INS_FAIL
   816 002D4 3103          			JBC		DC			; Check DC = 0?
   817 002D5 5071          			JMP	INS_FAIL
   818 002D6 3203          			JBC		Z			; Check Z = 0?
   819 002D7 5071          			JMP	INS_FAIL
   820 002D8 3503          			JBC		OV			; Check OV = 0?
   821 002D9 5071          			JMP	INS_FAIL
   822 002DA 3E03          			JBS		N			; Check N = 1?
   823 002DB 5071          			JMP	INS_FAIL
   824 002DC 2203          			BC		Z
   825 002DD 2603          			BC		N
   826 002DE 6CFF          			XOR		A,@0xFF		; Check Result ?
   827 002DF 3A03          			JBS		Z			; Check Z = 1?
   828 002E0 5071          			JMP	INS_FAIL
   829 002E1 3603          			JBC		N			; Check N = 0?
   830 002E2 5071          			JMP	INS_FAIL
   831 002E3 6000          			MOV		A,@0x00
   832 002E4 0103          			MOV		STATUS,A
   833 002E5 6080          			MOV		A,@0x80		; 0x80-1
   834 002E6 0150          			MOV		0x50,A		; [0x50] = 0x80
   835 002E7 0650          			DECA	0x50		; A = [0x50] - 1
   836 002E8 3803          			JBS		C			; Check C = 1?
   837 002E9 5071          			JMP	INS_FAIL
   838 002EA 3103          			JBC		DC			; Check DC = 0?
   839 002EB 5071          			JMP	INS_FAIL
   840 002EC 3203          			JBC		Z			; Check Z = 0?
   841 002ED 5071          			JMP	INS_FAIL
   842 002EE 3D03          			JBS		OV			; Check OV = 1?
   843 002EF 5071          			JMP	INS_FAIL
   844 002F0 3603          			JBC		N			; Check N = 0?
   845 002F1 5071          			JMP	INS_FAIL
   846 002F2 2203          			BC		Z
   847 002F3 2603          			BC		N
   848 002F4 6C7F          			XOR		A,@0x7F		; Check Result ?
   849 002F5 3A03          			JBS		Z			; Check Z = 1?
   850 002F6 5071          			JMP	INS_FAIL
   851 002F7 3603          			JBC		N			; Check N = 0?
   852 002F8 5071          			JMP	INS_FAIL
   853                     
   854                     
   855                     
   856 002F9               		INST_DEC:			;-------Instruction Test => DEC R
   857 002F9 600D          			MOV		A,@0x0D
   858 002FA 015A          			MOV		INST,A
   859 002FB 6000          			MOV		A,@0x00
   860 002FC 0103          			MOV		STATUS,A
   861 002FD 6020          			MOV		A,@0x20		; 0x20-1
   862 002FE 0150          			MOV		0x50,A		; [0x50] = 0x20
   863 002FF 0750          			DEC		0x50		; [0x50] = [0x50] - 0x01
   864 00300 1003          			MOV		A,STATUS
   865 00301 6C19          			XOR		A,@0x19		; Check Status ? for non rest
   866                     			;;XOR		A,@0x11		; Check Status ?
   867 00302 3A03          			JBS		Z			; Check Z = 1?
   868 00303 5071          			JMP	INS_FAIL
   869 00304 3603          			JBC		N			; Check N = 0?
   870 00305 5071          			JMP	INS_FAIL
   871 00306 2203          			BC		Z
   872 00307 1050          			MOV		A,0x50
   873 00308 6C1F          			XOR		A,@0x1F		; Check Result ?
   874 00309 3A03          			JBS		Z			; Check Z = 1?
   875 0030A 5071          			JMP	INS_FAIL
   876 0030B 3603          			JBC		N			; Check N = 0?
   877 0030C 5071          			JMP	INS_FAIL
   878 0030D 6000          			MOV		A,@0x00
   879 0030E 0103          			MOV		STATUS,A
   880 0030F 6001          			MOV		A,@0x01		; 0x01-1
   881 00310 0150          			MOV		0x50,A		; [0x50] = 0x01
   882 00311 0750          			DEC		0x50		; [0x50] = [0x50] - 0x01
   883 00312 1003          			MOV		A,STATUS
   884 00313 6C1F          			XOR		A,@0x1F		; Check Status ? for non reset
   885                     			;;XOR		A,@0x17		; Check Status ?
   886 00314 3A03          			JBS		Z			; Check Z = 1?
   887 00315 5071          			JMP	INS_FAIL
   888 00316 3603          			JBC		N			; Check N = 0?
   889 00317 5071          			JMP	INS_FAIL
   890 00318 2203          			BC		Z
   891 00319 1050          			MOV		A,0x50
   892 0031A 6C00          			XOR		A,@0x00		; Check Result ?
   893 0031B 3A03          			JBS		Z			; Check Z = 1?
   894 0031C 5071          			JMP	INS_FAIL
   895 0031D 3603          			JBC		N			; Check N = 0?
   896 0031E 5071          			JMP	INS_FAIL
   897 0031F 6000          			MOV		A,@0x00
   898 00320 0103          			MOV		STATUS,A
   899 00321 6000          			MOV		A,@0x00		; 0x00-1
   900 00322 0150          			MOV		0x50,A		; [0x50] = 0x00
   901 00323 0750          			DEC		0x50		; [0x50] = [0x50] - 0x01
   902 00324 1003          			MOV		A,STATUS
   903 00325 6C58          			XOR		A,@0x58		; Check Status ? for non reset
   904                     			;;XOR		A,@0x50		; Check Status ?
   905 00326 3A03          			JBS		Z			; Check Z = 1?
   906 00327 5071          			JMP	INS_FAIL
   907 00328 3603          			JBC		N			; Check N = 0?
   908 00329 5071          			JMP	INS_FAIL
   909 0032A 2203          			BC		Z
   910 0032B 1050          			MOV		A,0x50
   911 0032C 6CFF          			XOR		A,@0xFF		; Check Result ?
   912 0032D 3A03          			JBS		Z			; Check Z = 1?
   913 0032E 5071          			JMP	INS_FAIL
   914 0032F 3603          			JBC		N			; Check N = 0?
   915 00330 5071          			JMP	INS_FAIL
   916 00331 6000          			MOV		A,@0x00
   917 00332 0103          			MOV		STATUS,A
   918 00333 6080          			MOV		A,@0x80		; 0x80-1
   919 00334 0150          			MOV		0x50,A		; [0x50] = 0x80
   920 00335 0750          			DEC		0x50		; [0x50] = [0x50] - 0x01
   921 00336 1003          			MOV		A,STATUS
   922 00337 6C39          			XOR		A,@0x39		; Check Status ? for non reset
   923                     			;;XOR		A,@0x31		; Check Status ?
   924 00338 3A03          			JBS		Z			; Check Z = 1?
   925 00339 5071          			JMP	INS_FAIL
   926 0033A 3603          			JBC		N			; Check N = 0?
   927 0033B 5071          			JMP	INS_FAIL
   928 0033C 2203          			BC		Z
   929 0033D 1050          			MOV		A,0x50
   930 0033E 6C7F          			XOR		A,@0x7F		; Check Result ?
   931 0033F 3A03          			JBS		Z			; Check Z = 1?
   932 00340 5071          			JMP	INS_FAIL
   933 00341 3603          			JBC		N			; Check N = 0?
   934 00342 5071          			JMP	INS_FAIL
   935                     
   936 00343               		INST_ADD_A_R:		;-------Instruction Test => ADD A,R
   937 00343 6012          			MOV		A,@0x12
   938 00344 015A          			MOV		INST,A
   939 00345 40EA          			CALL	STATUS_CLEAR	; 0x80+0x7F
   940 00346 6080          			MOV		A,@0x80
   941 00347 0150          			MOV		0x50,A		; [0x50] = 0x80
   942 00348 607F          			MOV		A,@0x7F		; 
   943 00349 0E50          			ADD		A,0x50		; A = 0x7F + 0x80
   944 0034A 3003          			JBC		C			; Check C = 0?
   945 0034B 5071          			JMP	INS_FAIL
   946 0034C 3103          			JBC		DC			; Check DC = 0?
   947 0034D 5071          			JMP	INS_FAIL
   948 0034E 3203          			JBC		Z			; Check Z = 0?
   949 0034F 5071          			JMP	INS_FAIL
   950 00350 3503          			JBC		OV			; Check OV = 0?
   951 00351 5071          			JMP	INS_FAIL
   952 00352 3E03          			JBS		N			; Check N = 1?	; Result is Negative
   953 00353 5071          			JMP	INS_FAIL
   954 00354 2203          			BC		Z
   955 00355 2603          			BC		N
   956 00356 6CFF          			XOR		A,@0xFF		; Check Result ?
   957 00357 3A03          			JBS		Z			; Check Z = 1?
   958 00358 5071          			JMP	INS_FAIL
   959 00359 3603          			JBC		N			; Check N = 0?
   960 0035A 5071          			JMP	INS_FAIL
   961 0035B 40EA          			CALL	STATUS_CLEAR	; 0xFF+0x01
   962 0035C 60FF          			MOV		A,@0xFF
   963 0035D 0150          			MOV		0x50,A		; [0x50] = 0xFF
   964 0035E 6001          			MOV		A,@0x01		; 
   965 0035F 0E50          			ADD		A,0x50		; A = 0x01 + 0xFF
   966 00360 3803          			JBS		C			; Check C = 1?
   967 00361 5071          			JMP	INS_FAIL
   968 00362 3903          			JBS		DC			; Check DC = 1?
   969 00363 5071          			JMP	INS_FAIL
   970 00364 3A03          			JBS		Z			; Check Z = 1?
   971 00365 5071          			JMP	INS_FAIL
   972 00366 3503          			JBC		OV			; Check OV = 0?
   973 00367 5071          			JMP	INS_FAIL
   974 00368 3603          			JBC		N			; Check N = 0?
   975 00369 5071          			JMP	INS_FAIL
   976 0036A 2203          			BC		Z
   977 0036B 2603          			BC		N
   978 0036C 6C00          			XOR		A,@0x00		; Check Result ?
   979 0036D 3A03          			JBS		Z			; Check Z = 1?
   980 0036E 5071          			JMP	INS_FAIL
   981 0036F 3603          			JBC		N			; Check N = 0?
   982 00370 5071          			JMP	INS_FAIL
   983 00371 40EA          			CALL	STATUS_CLEAR	; 0x7F+0x01
   984 00372 607F          			MOV		A,@0x7F
   985 00373 0150          			MOV		0x50,A		; [0x50] = 0x7F
   986 00374 6001          			MOV		A,@0x01		; 
   987 00375 0E50          			ADD		A,0x50		; A = 0x01 + 0x7F
   988 00376 3003          			JBC		C			; Check C = 0?
   989 00377 5071          			JMP	INS_FAIL
   990 00378 3903          			JBS		DC			; Check DC = 1?
   991 00379 5071          			JMP	INS_FAIL
   992 0037A 3203          			JBC		Z			; Check Z = 0?
   993 0037B 5071          			JMP	INS_FAIL
   994 0037C 3D03          			JBS		OV			; Check OV = 1?
   995 0037D 5071          			JMP	INS_FAIL
   996 0037E 3E03          			JBS		N			; Check N = 1?
   997 0037F 5071          			JMP	INS_FAIL
   998 00380 2203          			BC		Z
   999 00381 2603          			BC		N
  1000 00382 6C80          			XOR		A,@0x80		; Check Result ?
  1001 00383 3A03          			JBS		Z			; Check Z = 1?
  1002 00384 5071          			JMP	INS_FAIL
  1003 00385 3603          			JBC		N			; Check N = 0?
  1004 00386 5071          			JMP	INS_FAIL
  1005 00387               		INST_ADD_R_A:		;-------Instruction Test => ADD R,A
  1006 00387 6013          			MOV		A,@0x13
  1007 00388 015A          			MOV		INST,A
  1008 00389 40EA          			CALL	STATUS_CLEAR	; 0x80+0x7F
  1009 0038A 6080          			MOV		A,@0x80
  1010 0038B 0150          			MOV		0x50,A		; [0x50] = 0x80
  1011 0038C 607F          			MOV		A,@0x7F		; A = 0x7F
  1012 0038D 0F50          			ADD		0x50,A		; [0x50] = 0x80 + 0x7F
  1013 0038E 1003          			MOV		A,STATUS
  1014 0038F 6C58          			XOR		A,@0x58		; Check Status ? for non reset
  1015                     			;;XOR		A,@0x50		; Check Status ?
  1016 00390 3A03          			JBS		Z			; Check Z = 1?
  1017 00391 5071          			JMP	INS_FAIL
  1018 00392 3603          			JBC		N			; Check N = 0?
  1019 00393 5071          			JMP	INS_FAIL
  1020 00394 1050          			MOV		A,0x50
  1021 00395 6CFF          			XOR		A,@0xFF		; Check Result ?
  1022 00396 3A03          			JBS		Z			; Check Z = 1?
  1023 00397 5071          			JMP	INS_FAIL
  1024 00398 3603          			JBC		N			; Check N = 0?
  1025 00399 5071          			JMP	INS_FAIL
  1026 0039A 40EA          			CALL	STATUS_CLEAR	; 0xFF+0x01
  1027 0039B 60FF          			MOV		A,@0xFF
  1028 0039C 0150          			MOV		0x50,A		; [0x50] = 0xFF
  1029 0039D 6001          			MOV		A,@0x01		; A = 0x01
  1030 0039E 0F50          			ADD		0x50,A		; [0x50] = 0xFF + 0x01
  1031 0039F 1003          			MOV		A,STATUS
  1032 003A0 6C1F          			XOR		A,@0x1F		; Check Status ? for non reset
  1033                     			;;XOR		A,@0x17		; Check Status ?
  1034 003A1 3A03          			JBS		Z			; Check Z = 1?
  1035 003A2 5071          			JMP	INS_FAIL
  1036 003A3 3603          			JBC		N			; Check N = 0?
  1037 003A4 5071          			JMP	INS_FAIL
  1038 003A5 1050          			MOV		A,0x50
  1039 003A6 6C00          			XOR		A,@0x00		; Check Result ?
  1040 003A7 3A03          			JBS		Z			; Check Z = 1?
  1041 003A8 5071          			JMP	INS_FAIL
  1042 003A9 3603          			JBC		N			; Check N = 0?
  1043 003AA 5071          			JMP	INS_FAIL
  1044 003AB 40EA          			CALL	STATUS_CLEAR	;0x7F+0x01
  1045 003AC 607F          			MOV		A,@0x7F
  1046 003AD 0150          			MOV		0x50,A		; [0x50] = 0x7F
  1047 003AE 6001          			MOV		A,@0x01		; A = 0x01
  1048 003AF 0F50          			ADD		0x50,A		; [0x50] = 0x7F + 0x01
  1049 003B0 1003          			MOV		A,STATUS
  1050 003B1 6C7A          			XOR		A,@0x7A		; Check Status ? for non reset
  1051                     			;;XOR		A,@0x72		; Check Status ?
  1052 003B2 3A03          			JBS		Z			; Check Z = 1?
  1053 003B3 5071          			JMP	INS_FAIL
  1054 003B4 3603          			JBC		N			; Check N = 0?
  1055 003B5 5071          			JMP	INS_FAIL
  1056 003B6 1050          			MOV		A,0x50
  1057 003B7 6C80          			XOR		A,@0x80		; Check Result ?
  1058 003B8 3A03          			JBS		Z			; Check Z = 1?
  1059 003B9 5071          			JMP	INS_FAIL
  1060 003BA 3603          			JBC		N			; Check N = 0?
  1061 003BB 5071          			JMP	INS_FAIL
  1062 003BC               		INST_ADD_A_K:		;-------Instruction Test => ADD A,k
  1063 003BC 6034          			MOV		A,@0x34
  1064 003BD 015A          			MOV		INST,A
  1065 003BE 40EA          			CALL	STATUS_CLEAR
  1066 003BF 607F          			MOV		A,@0x7F		;0x7F+0x01
  1067 003C0 7C01          			ADD		A,@0x01		; A = 0x01 + A
  1068 003C1 3003          			JBC		C			; Check C = 0?
  1069 003C2 5071          			JMP	INS_FAIL
  1070 003C3 3903          			JBS		DC			; Check DC = 1?
  1071 003C4 5071          			JMP	INS_FAIL
  1072 003C5 3203          			JBC		Z			; Check Z = 0?
  1073 003C6 5071          			JMP	INS_FAIL
  1074 003C7 3D03          			JBS		OV			; Check OV = 1?
  1075 003C8 5071          			JMP	INS_FAIL
  1076 003C9 3E03          			JBS		N			; Check N = 1?
  1077 003CA 5071          			JMP	INS_FAIL
  1078 003CB 6C80          			XOR		A,@0x80		; Check Result ?
  1079 003CC 40ED          			CALL	INST_XOR_JUDGE
  1080 003CD 40EA          			CALL	STATUS_CLEAR
  1081 003CE 60FF          			MOV		A,@0xFF		;0xFF+0x01
  1082 003CF 7C01          			ADD		A,@0x01		; A = 0x01 + A
  1083 003D0 3803          			JBS		C			; Check C = 1?
  1084 003D1 5071          			JMP	INS_FAIL
  1085 003D2 3903          			JBS		DC			; Check DC = 1?
  1086 003D3 5071          			JMP	INS_FAIL
  1087 003D4 3A03          			JBS		Z			; Check Z = 1?
  1088 003D5 5071          			JMP	INS_FAIL
  1089 003D6 3503          			JBC		OV			; Check OV = 0?
  1090 003D7 5071          			JMP	INS_FAIL
  1091 003D8 3603          			JBC		N			; Check N = 0?
  1092 003D9 5071          			JMP	INS_FAIL
  1093 003DA 6C00          			XOR		A,@0x00		; Check Result ?
  1094 003DB 40ED          			CALL	INST_XOR_JUDGE
  1095 003DC 40EA          			CALL	STATUS_CLEAR
  1096 003DD 607F          			MOV		A,@0x7F		; 0x80+0x7F
  1097 003DE 7C80          			ADD		A,@0x80		; A = 0x80 + A
  1098 003DF 3003          			JBC		C			; Check C = 0?
  1099 003E0 5071          			JMP	INS_FAIL
  1100 003E1 3103          			JBC		DC			; Check DC = 0?
  1101 003E2 5071          			JMP	INS_FAIL
  1102 003E3 3203          			JBC		Z			; Check Z = 0?
  1103 003E4 5071          			JMP	INS_FAIL
  1104 003E5 3503          			JBC		OV			; Check OV = 0?
  1105 003E6 5071          			JMP	INS_FAIL
  1106 003E7 3E03          			JBS		N			; Check N = 1?
  1107 003E8 5071          			JMP	INS_FAIL
  1108 003E9 6CFF          			XOR		A,@0xFF		; Check Result ?
  1109 003EA 40ED          			CALL	INST_XOR_JUDGE
  1110 003EB               		INST_ADC_A_R:		;-------Instruction Test => ADC A,R
  1111 003EB 6036          			MOV		A,@0x36
  1112 003EC 015A          			MOV		INST,A
  1113 003ED 40EA          			CALL	STATUS_CLEAR
  1114 003EE 2803          			BS		C			; 0x7F+0x00
  1115 003EF 607F          			MOV		A,@0x7F		
  1116 003F0 0150          			MOV		0x50,A		; [0x50] = 0x7F
  1117 003F1 6000          			MOV		A,@0x00		; A = 0x00
  1118 003F2 7E50          			ADC		A,0x50		; A = A + [0x50] + C
  1119 003F3 3003          			JBC		C			; Check C = 0?
  1120 003F4 5071          			JMP	INS_FAIL
  1121 003F5 3903          			JBS		DC			; Check DC = 1?
  1122 003F6 5071          			JMP	INS_FAIL
  1123 003F7 3203          			JBC		Z			; Check Z = 0?
  1124 003F8 5071          			JMP	INS_FAIL
  1125 003F9 3D03          			JBS		OV			; Check OV = 1?
  1126 003FA 5071          			JMP	INS_FAIL
  1127 003FB 3E03          			JBS		N			; Check N = 1?
  1128 003FC 5071          			JMP	INS_FAIL
  1129 003FD 6C80          			XOR		A,@0x80		; Check Result ?
  1130 003FE 40ED          			CALL	INST_XOR_JUDGE
  1131 003FF 40EA          			CALL	STATUS_CLEAR
  1132 00400 2803          			BS		C			; 0x80+0x7F
  1133 00401 6080          			MOV		A,@0x80
  1134 00402 0150          			MOV		0x50,A		; [0x50] = 0x80
  1135 00403 607F          			MOV		A,@0x7F		; A = 0x7F
  1136 00404 7E50          			ADC		A,0x50		; A = A + [0x50] + C
  1137 00405 3803          			JBS		C			; Check C = 1?
  1138 00406 5071          			JMP	INS_FAIL
  1139 00407 3903          			JBS		DC			; Check DC = 1?
  1140 00408 5071          			JMP	INS_FAIL
  1141 00409 3A03          			JBS		Z			; Check Z = 1?
  1142 0040A 5071          			JMP	INS_FAIL
  1143 0040B 3503          			JBC		OV			; Check OV = 0?
  1144 0040C 5071          			JMP	INS_FAIL
  1145 0040D 3603          			JBC		N			; Check N = 0?
  1146 0040E 5071          			JMP	INS_FAIL
  1147 0040F 6C00          			XOR		A,@0x00		; Check Result ?
  1148 00410 40ED          			CALL	INST_XOR_JUDGE
  1149 00411               		INST_ADC_R_A:		;-------Instruction Test => ADC R,A
  1150 00411 6037          			MOV		A,@0x37
  1151 00412 015A          			MOV		INST,A
  1152 00413 40EA          			CALL	STATUS_CLEAR
  1153 00414 2803          			BS		C			;0x7F+0x00
  1154 00415 607F          			MOV		A,@0x7F
  1155 00416 0150          			MOV		0x50,A		; [0x50] = 0x7F
  1156 00417 6000          			MOV		A,@0x00		; A = 0x00
  1157 00418 2203          			BC		Z
  1158 00419 7F50          			ADC		0x50,A		; TMP1 = A + [0x50] + C
  1159 0041A 1003          			MOV		A,STATUS
  1160 0041B 6C7A          			XOR		A,@0x7A		; Check Status ?
  1161                     			;;XOR		A,@0x72		; Check Status ?
  1162 0041C 40ED          			CALL	INST_XOR_JUDGE
  1163 0041D 1050          			MOV		A,0x50
  1164 0041E 6C80          			XOR		A,@0x80		; Check Result ?
  1165 0041F 40ED          			CALL	INST_XOR_JUDGE
  1166 00420 40EA          			CALL	STATUS_CLEAR
  1167 00421 2803          			BS		C			;0x80+0x7F
  1168 00422 6080          			MOV		A,@0x80
  1169 00423 0150          			MOV		0x50,A		; [0x50] = 0x80
  1170 00424 607F          			MOV		A,@0x7F		; A = 0x7F
  1171 00425 2203          			BC		Z
  1172 00426 7F50          			ADC		0x50,A		; TMP1 = A + [0x50] + C
  1173 00427 1003          			MOV		A,STATUS
  1174 00428 6C1F          			XOR		A,@0x1F		; Check Status ?
  1175                     			;;XOR		A,@0x17		; Check Status ?
  1176 00429 40ED          			CALL	INST_XOR_JUDGE
  1177 0042A 1050          			MOV		A,0x50
  1178 0042B 6C00          			XOR		A,@0x00		; Check Result ?
  1179 0042C 40ED          			CALL	INST_XOR_JUDGE
  1180                     
  1181 0042D               		INST_INCA:			;-------Instruction Test => INCA R
  1182 0042D 6017          			MOV		A,@0x17
  1183 0042E 015A          			MOV		INST,A
  1184 0042F 40EA          			CALL	STATUS_CLEAR	; 0x7F+0x01
  1185 00430 607F          			MOV		A,@0x7F
  1186 00431 0150          			MOV		0x50,A		; [0x50] = 0x7F
  1187 00432 1450          			INCA	0x50		; A = [0x50] +1		
  1188 00433 3003          			JBC		C			; Check C = 0?
  1189 00434 5071          			JMP	INS_FAIL
  1190 00435 3903          			JBS		DC			; Check DC = 1?
  1191 00436 5071          			JMP	INS_FAIL
  1192 00437 3203          			JBC		Z			; Check Z = 0?
  1193 00438 5071          			JMP	INS_FAIL
  1194 00439 3D03          			JBS		OV			; Check OV = 1?
  1195 0043A 5071          			JMP	INS_FAIL
  1196 0043B 3E03          			JBS		N			; Check N = 1?
  1197 0043C 5071          			JMP	INS_FAIL
  1198 0043D 2203          			BC		Z
  1199 0043E 2603          			BC		N
  1200 0043F 6C80          			XOR		A,@0x80		; Check Result ?
  1201 00440 3A03          			JBS		Z			; Check Z = 1?
  1202 00441 5071          			JMP	INS_FAIL
  1203 00442 3603          			JBC		N			; Check N = 0?
  1204 00443 5071          			JMP	INS_FAIL
  1205 00444 40EA          			CALL	STATUS_CLEAR	; 0xFF+0x01
  1206 00445 60FF          			MOV		A,@0xFF
  1207 00446 0150          			MOV		0x50,A		; [0x50] = 0xFF
  1208 00447 1450          			INCA	0x50		; A = [0x50] +1		
  1209 00448 3803          			JBS		C			; Check C = 1?
  1210 00449 5071          			JMP	INS_FAIL
  1211 0044A 3903          			JBS		DC			; Check DC = 1?
  1212 0044B 5071          			JMP	INS_FAIL
  1213 0044C 3A03          			JBS		Z			; Check Z = 1?
  1214 0044D 5071          			JMP	INS_FAIL
  1215 0044E 3503          			JBC		OV			; Check OV = 0?
  1216 0044F 5071          			JMP	INS_FAIL
  1217 00450 3603          			JBC		N			; Check N = 0?
  1218 00451 5071          			JMP	INS_FAIL
  1219 00452 2203          			BC		Z
  1220 00453 2603          			BC		N
  1221 00454 6C00          			XOR		A,@0x00		; Check Result ?
  1222 00455 3A03          			JBS		Z			; Check Z = 1?
  1223 00456 5071          			JMP	INS_FAIL
  1224 00457 3603          			JBC		N			; Check N = 0?
  1225 00458 5071          			JMP	INS_FAIL
  1226                     
  1227 00459               		INST_INC:			;-------Instruction Test => INC R
  1228 00459 6018          			MOV		A,@0x18
  1229 0045A 015A          			MOV		INST,A
  1230 0045B 40EA          			CALL 	STATUS_CLEAR	; 0x7F+0x01
  1231 0045C 607F          			MOV		A,@0x7F
  1232 0045D 0150          			MOV		0x50,A		; [0x50] = 0x7F
  1233 0045E 1550          			INC		0x50		; [0x50] = [0x50] + 0x01
  1234 0045F 1003          			MOV		A,STATUS
  1235 00460 6C7A          			XOR		A,@0x7A		; Check Status ?
  1236                     			;;XOR		A,@0x72		; Check Status ?
  1237 00461 3A03          			JBS		Z			; Check Z = 1?
  1238 00462 5071          			JMP	INS_FAIL
  1239 00463 3603          			JBC		N			; Check N = 0?
  1240 00464 5071          			JMP	INS_FAIL
  1241 00465 1050          			MOV		A,0x50
  1242 00466 6C80          			XOR		A,@0x80		; Check Result ?
  1243 00467 3A03          			JBS		Z			; Check Z = 1?
  1244 00468 5071          			JMP	INS_FAIL
  1245 00469 3603          			JBC		N			; Check N = 0?
  1246 0046A 5071          			JMP	INS_FAIL
  1247 0046B 40EA          			CALL	STATUS_CLEAR	; 0xFF+0x01
  1248 0046C 60FF          			MOV		A,@0xFF
  1249 0046D 0150          			MOV		0x50,A		; [0x50] = 0x7F
  1250 0046E 1550          			INC		0x50		; [0x50] = [0x50] + 0x01
  1251 0046F 1003          			MOV		A,STATUS
  1252 00470 6C1F          			XOR		A,@0x1F		; Check Status ?
  1253                     			;;XOR		A,@0x17		; Check Status ?
  1254 00471 3A03          			JBS		Z			; Check Z = 1?
  1255 00472 5071          			JMP	INS_FAIL
  1256 00473 3603          			JBC		N			; Check N = 0?
  1257 00474 5071          			JMP	INS_FAIL
  1258 00475 1050          			MOV		A,0x50
  1259 00476 6C00          			XOR		A,@0x00		; Check Result ?
  1260 00477 3A03          			JBS		Z			; Check Z = 1?
  1261 00478 5071          			JMP	INS_FAIL
  1262 00479 3603          			JBC		N			; Check N = 0?
  1263 0047A 5071          			JMP	INS_FAIL
  1264                     
  1265 0047B               		INST_NEG_R:			;-------Instruction Test => NEG R
  1266 0047B 6035          			MOV		A,@0x35
  1267 0047C 015A          			MOV		INST,A
  1268 0047D 40EA          			CALL	STATUS_CLEAR
  1269 0047E 6000          			MOV		A,@0x00		; 0x00
  1270 0047F 0150          			MOV		0x50,A		; [0x50] = 0x00
  1271 00480 7D50          			NEG		0x50
  1272 00481 1003          			MOV		A,STATUS
  1273 00482 6C1F          			XOR		A,@0x1F		; Check Status ?
  1274                     			;;XOR		A,@0x17		; Check Status ?
  1275 00483 40ED          			CALL	INST_XOR_JUDGE
  1276 00484 1050          			MOV		A,0x50
  1277 00485 6C00          			XOR		A,@0x00		; Check Result ?
  1278 00486 40ED          			CALL	INST_XOR_JUDGE
  1279 00487 40EA          			CALL	STATUS_CLEAR
  1280 00488 6001          			MOV		A,@0x01		; 0x01
  1281 00489 0150          			MOV		0x50,A		; [0x50] = 0x01
  1282 0048A 7D50          			NEG		0x50
  1283 0048B 1003          			MOV		A,STATUS
  1284 0048C 6C58          			XOR		A,@0x58		; Check Status ?
  1285                     			;;XOR		A,@0x50		; Check Status ?
  1286 0048D 40ED          			CALL	INST_XOR_JUDGE
  1287 0048E 1050          			MOV		A,0x50
  1288 0048F 6CFF          			XOR		A,@0xFF		; Check Result ?
  1289 00490 4683          			CALL	INST_XCH
  1290 00491 40EA          			CALL	STATUS_CLEAR
  1291 00492 6080          			MOV		A,@0x80		; 0x80
  1292 00493 0150          			MOV		0x50,A		; [0x50] = 0x80
  1293 00494 7D50          			NEG		0x50
  1294 00495 1003          			MOV		A,STATUS
  1295 00496 6C7A          			XOR		A,@0x7A		; Check Status ?
  1296                     			;;XOR		A,@0x72		; Check Status ?
  1297 00497 40ED          			CALL	INST_XOR_JUDGE
  1298 00498 1050          			MOV		A,0x50
  1299 00499 6C80          			XOR		A,@0x80		; Check Result ?
  1300 0049A 40ED          			CALL	INST_XOR_JUDGE
  1301                     
  1302 0049B 0012          		RET
  1303 0049C               	TEST_INST_LOGIC_I:
  1304 0049C               		INST_BTG:			;-------Instruction Test => BTG R,b	
  1305 0049C 6006          			MOV		A,@0x06
  1306 0049D 015A          			MOV		INST,A
  1307 0049E 40EA          			CALL	STATUS_CLEAR
  1308 0049F 60FF          			MOV		A,@0xFF
  1309 004A0 0104          			MOV		RSR,A		; Start Address
  1310 004A1 0084          			BTG		RSR
  1311 004A2 1004          			MOV		A,RSR
  1312 004A3 6CFE          			XOR		A,@0xFE		; Check Result ?
  1313 004A4 40ED          			CALL	INST_XOR_JUDGE
  1314 004A5               		INST_OR_A_R:		;-------Instruction Test => OR A,R
  1315 004A5 600E          			MOV		A,@0x0E
  1316 004A6 015A          			MOV		INST,A
  1317 004A7 6000          			MOV		A,@0x00
  1318 004A8 0103          			MOV		STATUS,A
  1319 004A9 6000          			MOV		A,@0x00
  1320 004AA 0150          			MOV		0x50,A		; [0x50] = 0x00
  1321 004AB 6000          			MOV		A,@0x00
  1322 004AC 2203          			BC		Z
  1323 004AD 0850          			OR		A,0x50		; A = A | [0x50]
  1324 004AE 3003          			JBC		C			; Check C = 0?
  1325 004AF 5071          			JMP	INS_FAIL
  1326 004B0 3103          			JBC		DC			; Check DC = 0?
  1327 004B1 5071          			JMP	INS_FAIL
  1328 004B2 3A03          			JBS		Z			; Check Z = 1?
  1329 004B3 5071          			JMP	INS_FAIL
  1330 004B4 3503          			JBC		OV			; Check OV = 0?
  1331 004B5 5071          			JMP	INS_FAIL
  1332 004B6 3603          			JBC		N			; Check N = 0?
  1333 004B7 5071          			JMP	INS_FAIL
  1334 004B8 2203          			BC		Z
  1335 004B9 6C00          			XOR		A,@0x00		; Check Result ?
  1336 004BA 3A03          			JBS		Z			; Check Z = 1?
  1337 004BB 5071          			JMP	INS_FAIL
  1338 004BC 3603          			JBC		N			; Check N = 0?
  1339 004BD 5071          			JMP	INS_FAIL
  1340 004BE 6000          			MOV		A,@0x00
  1341 004BF 0103          			MOV		STATUS,A
  1342 004C0 6055          			MOV		A,@0x55
  1343 004C1 0150          			MOV		0x50,A		; [0x50] = 0x55
  1344 004C2 60AA          			MOV		A,@0xAA
  1345 004C3 2203          			BC		Z
  1346 004C4 0850          			OR		A,0x50		; A = A | [0x50]
  1347 004C5 3003          			JBC		C			; Check C = 0?
  1348 004C6 5071          			JMP	INS_FAIL
  1349 004C7 3103          			JBC		DC			; Check DC = 0?
  1350 004C8 5071          			JMP	INS_FAIL
  1351 004C9 3203          			JBC		Z			; Check Z = 0?
  1352 004CA 5071          			JMP	INS_FAIL
  1353 004CB 3503          			JBC		OV			; Check OV = 0?
  1354 004CC 5071          			JMP	INS_FAIL
  1355 004CD 3E03          			JBS		N			; Check N = 1?
  1356 004CE 5071          			JMP	INS_FAIL
  1357 004CF 2203          			BC		Z
  1358 004D0 6CFF          			XOR		A,@0xFF		; Check Result ?
  1359 004D1 3A03          			JBS		Z			; Check Z = 1?
  1360 004D2 5071          			JMP	INS_FAIL
  1361 004D3 3603          			JBC		N			; Check N = 0?
  1362 004D4 5071          			JMP	INS_FAIL
  1363                     
  1364 004D5               		INST_OR_R_A:		;-------Instruction Test => OR R,A
  1365 004D5 600F          			MOV		A,@0x0F
  1366 004D6 015A          			MOV		INST,A
  1367 004D7 6000          			MOV		A,@0x00
  1368 004D8 0103          			MOV		STATUS,A
  1369 004D9 6000          			MOV		A,@0x00
  1370 004DA 0150          			MOV		0x50,A		; [0x50] = 0x00
  1371 004DB 6000          			MOV		A,@0x00		; A = 0x00
  1372 004DC 2203          			BC		Z
  1373 004DD 0950          			OR		0x50,A		; [0x50] = A | [0x50]
  1374 004DE 1003          			MOV		A,STATUS
  1375 004DF 6C1C          			XOR		A,@0x1C		; Check Status ? for non reset
  1376                     			;;XOR		A,@0x14		; Check Status ?
  1377 004E0 3A03          			JBS		Z			; Check Z = 1?
  1378 004E1 5071          			JMP	INS_FAIL
  1379 004E2 3603          			JBC		N			; Check N = 0?
  1380 004E3 5071          			JMP	INS_FAIL
  1381 004E4 1050          			MOV		A,0x50		; A = Result[0x50]
  1382 004E5 2203          			BC		Z
  1383 004E6 2603          			BC		N
  1384 004E7 6C00          			XOR		A,@0x00		; Check Result ?
  1385 004E8 3A03          			JBS		Z			; Check Z = 1?
  1386 004E9 5071          			JMP	INS_FAIL
  1387 004EA 3603          			JBC		N			; Check N = 0?
  1388 004EB 5071          			JMP	INS_FAIL
  1389 004EC 6000          			MOV		A,@0x00
  1390 004ED 0103          			MOV		STATUS,A
  1391 004EE 6055          			MOV		A,@0x55
  1392 004EF 0150          			MOV		0x50,A		; [0x50] = 0x55
  1393 004F0 60AA          			MOV		A,@0xAA		; A = 0xAA
  1394 004F1 0950          			OR		0x50,A		; [0x50] = 0xAA | 0x55
  1395 004F2 1003          			MOV		A,STATUS
  1396 004F3 6C58          			XOR		A,@0x58		; Check Status ? for non reset
  1397                     			;;XOR		A,@0x50		; Check Status ?
  1398 004F4 3A03          			JBS		Z			; Check Z = 1?
  1399 004F5 5071          			JMP	INS_FAIL
  1400 004F6 3603          			JBC		N			; Check N = 0?
  1401 004F7 5071          			JMP	INS_FAIL
  1402 004F8 1050          			MOV		A,0x50
  1403 004F9 2203          			BC		Z
  1404 004FA 2603          			BC		N
  1405 004FB 6CFF          			XOR		A,@0xFF		; Check Result ?
  1406 004FC 3A03          			JBS		Z			; Check Z = 1?
  1407 004FD 5071          			JMP	INS_FAIL
  1408 004FE 3603          			JBC		N			; Check N = 0?
  1409 004FF 5071          			JMP	INS_FAIL
  1410                     
  1411 00500               		INST_AND_A_R:		;-------Instruction Test => AND A,R
  1412 00500 6010          			MOV		A,@0x10
  1413 00501 015A          			MOV		INST,A
  1414 00502 40EA          			CALL	STATUS_CLEAR
  1415 00503 6055          			MOV		A,@0x55
  1416 00504 0150          			MOV		0x50,A		; [0x50] = 0x55
  1417 00505 60AA          			MOV		A,@0xAA
  1418 00506 0A50          			AND		A,0x50		; A = 0xAA & 0x55
  1419 00507 3003          			JBC		C			; Check C = 0?
  1420 00508 5071          			JMP	INS_FAIL
  1421 00509 3103          			JBC		DC			; Check DC = 0?
  1422 0050A 5071          			JMP	INS_FAIL
  1423 0050B 3A03          			JBS		Z			; Check Z = 1?
  1424 0050C 5071          			JMP	INS_FAIL
  1425 0050D 3503          			JBC		OV			; Check OV = 0?
  1426 0050E 5071          			JMP	INS_FAIL
  1427 0050F 3603          			JBC		N			; Check N = 0?
  1428 00510 5071          			JMP	INS_FAIL
  1429 00511 6C00          			XOR		A,@0x00		; Check Result ?
  1430 00512 3A03          			JBS		Z			; Check Z = 1?
  1431 00513 5071          			JMP	INS_FAIL
  1432 00514 3603          			JBC		N			; Check N = 0?
  1433 00515 5071          			JMP	INS_FAIL
  1434 00516 40EA          			CALL	STATUS_CLEAR
  1435 00517 60F5          			MOV		A,@0xF5
  1436 00518 0150          			MOV		0x50,A		; [0x50] = 0xF5
  1437 00519 60FA          			MOV		A,@0xFA
  1438 0051A 0A50          			AND		A,0x50		; A = 0xFA & 0xF5
  1439 0051B 3003          			JBC		C			; Check C = 0?
  1440 0051C 5071          			JMP	INS_FAIL
  1441 0051D 3103          			JBC		DC			; Check DC = 0?
  1442 0051E 5071          			JMP	INS_FAIL
  1443 0051F 3203          			JBC		Z			; Check Z = 0?
  1444 00520 5071          			JMP	INS_FAIL
  1445 00521 3503          			JBC		OV			; Check OV = 0?
  1446 00522 5071          			JMP	INS_FAIL
  1447 00523 3E03          			JBS		N			; Check N = 1?
  1448 00524 5071          			JMP	INS_FAIL
  1449 00525 6CF0          			XOR		A,@0xF0		; Check Result ?
  1450 00526 3A03          			JBS		Z			; Check Z = 1?
  1451 00527 5071          			JMP	INS_FAIL
  1452 00528 3603          			JBC		N			; Check N = 0?
  1453 00529 5071          			JMP	INS_FAIL
  1454 0052A               		INST_AND_R_A:		;-------Instruction Test => AND R,A
  1455 0052A 6011          			MOV		A,@0x11
  1456 0052B 015A          			MOV		INST,A
  1457 0052C 40EA          			CALL	STATUS_CLEAR
  1458 0052D 6055          			MOV		A,@0x55
  1459 0052E 0150          			MOV		0x50,A		; [0x50] = 0x55
  1460 0052F 60AA          			MOV		A,@0xAA
  1461 00530 0B50          			AND		0x50,A		; [0x50] = 0xAA & 0x55
  1462 00531 1003          			MOV		A,STATUS
  1463 00532 6C1C          			XOR		A,@0x1C		; Check Status ? for non reset
  1464                     			;;XOR		A,@0x14		; Check Status ?
  1465 00533 3A03          			JBS		Z			; Check Z = 1?
  1466 00534 5071          			JMP	INS_FAIL
  1467 00535 3603          			JBC		N			; Check N = 0?
  1468 00536 5071          			JMP	INS_FAIL
  1469 00537 2203          			BC		Z
  1470 00538 1050          			MOV		A,0x50
  1471 00539 2203          			BC		Z
  1472 0053A 6C00          			XOR		A,@0x00		; Check Result ?
  1473 0053B 3A03          			JBS		Z			; Check Z = 1?
  1474 0053C 5071          			JMP	INS_FAIL
  1475 0053D 3603          			JBC		N			; Check N = 0?
  1476 0053E 5071          			JMP	INS_FAIL
  1477 0053F 40EA          			CALL	STATUS_CLEAR
  1478 00540 60F5          			MOV		A,@0xF5
  1479 00541 0150          			MOV		0x50,A		; [0x50] = 0xF5
  1480 00542 60FA          			MOV		A,@0xFA
  1481 00543 0B50          			AND		0x50,A		; [0x50] = 0xFA & 0xF5
  1482 00544 1003          			MOV		A,STATUS
  1483 00545 6C58          			XOR		A,@0x58		; Check Status ? for non reset
  1484                     			;;XOR		A,@0x50		; Check Status ?
  1485 00546 3A03          			JBS		Z			; Check Z = 1?
  1486 00547 5071          			JMP	INS_FAIL
  1487 00548 3603          			JBC		N			; Check N = 0?
  1488 00549 5071          			JMP	INS_FAIL
  1489 0054A 2203          			BC		Z
  1490 0054B 1050          			MOV		A,0x50
  1491 0054C 2203          			BC		Z
  1492 0054D 6CF0          			XOR		A,@0xF0		; Check Result ?
  1493 0054E 3A03          			JBS		Z			; Check Z = 1?
  1494 0054F 5071          			JMP	INS_FAIL
  1495 00550 3603          			JBC		N			; Check N = 0?
  1496 00551 5071          			JMP	INS_FAIL
  1497 00552               		INST_AND_A_K:		;-------Instruction Test => AND A,k
  1498 00552 6029          			MOV		A,@0x29
  1499 00553 015A          			MOV		INST,A
  1500 00554 40EA          			CALL	STATUS_CLEAR
  1501 00555 60AA          			MOV		A,@0xAA
  1502 00556 6855          			AND		A,@0x55		; A = 0xAA & 0x55
  1503 00557 3003          			JBC		C			; Check C = 0?
  1504 00558 5071          			JMP	INS_FAIL
  1505 00559 3103          			JBC		DC			; Check DC = 0?
  1506 0055A 5071          			JMP	INS_FAIL
  1507 0055B 3A03          			JBS		Z			; Check Z = 1?
  1508 0055C 5071          			JMP	INS_FAIL
  1509 0055D 3503          			JBC		OV			; Check OV = 0?
  1510 0055E 5071          			JMP	INS_FAIL
  1511 0055F 3603          			JBC		N			; Check N = 0?
  1512 00560 5071          			JMP	INS_FAIL
  1513 00561 6C00          			XOR		A,@0x00		; Check Result ?
  1514 00562 3A03          			JBS		Z			; Check Z = 1?
  1515 00563 5071          			JMP	INS_FAIL
  1516 00564 3603          			JBC		N			; Check N = 0?
  1517 00565 5071          			JMP	INS_FAIL
  1518 00566 40EA          			CALL	STATUS_CLEAR
  1519 00567 60AA          			MOV		A,@0xAA
  1520 00568 68FF          			AND		A,@0xFF		; A = A & 0xFF
  1521 00569 3003          			JBC		C			; Check C = 0?
  1522 0056A 5071          			JMP	INS_FAIL
  1523 0056B 3103          			JBC		DC			; Check DC = 0?
  1524 0056C 5071          			JMP	INS_FAIL
  1525 0056D 3203          			JBC		Z			; Check Z = 0?
  1526 0056E 5071          			JMP	INS_FAIL
  1527 0056F 3503          			JBC		OV			; Check OV = 0?
  1528 00570 5071          			JMP	INS_FAIL
  1529 00571 3E03          			JBS		N			; Check N = 1?
  1530 00572 5071          			JMP	INS_FAIL
  1531 00573 6CAA          			XOR		A,@0xAA		; Check Result ?
  1532 00574 40ED          			CALL	INST_XOR_JUDGE
  1533                     
  1534 00575               		INST_COMA:			;-------Instruction Test => COMA R
  1535 00575 6015          			MOV		A,@0x15
  1536 00576 015A          			MOV		INST,A
  1537 00577 40EA          			CALL	STATUS_CLEAR
  1538 00578 60FF          			MOV		A,@0xFF
  1539 00579 0150          			MOV		0x50,A		; [0x50] = 0xFF
  1540 0057A 1250          			COMA	0x50		; A = /R
  1541 0057B 3003          			JBC		C			; Check C = 0?
  1542 0057C 5071          			JMP	INS_FAIL
  1543 0057D 3103          			JBC		DC			; Check DC = 0?
  1544 0057E 5071          			JMP	INS_FAIL
  1545 0057F 3A03          			JBS		Z			; Check Z = 1?
  1546 00580 5071          			JMP	INS_FAIL
  1547 00581 3503          			JBC		OV			; Check OV = 0?
  1548 00582 5071          			JMP	INS_FAIL
  1549 00583 3603          			JBC		N			; Check N = 0?
  1550 00584 5071          			JMP	INS_FAIL
  1551 00585 6C00          			XOR		A,@0x00		; Check Result ?
  1552 00586 3A03          			JBS		Z			; Check Z = 1?
  1553 00587 5071          			JMP	INS_FAIL
  1554 00588 3603          			JBC		N			; Check N = 0?
  1555 00589 5071          			JMP	INS_FAIL	
  1556 0058A 40EA          			CALL	STATUS_CLEAR
  1557 0058B 6005          			MOV		A,@0x05
  1558 0058C 0150          			MOV		0x50,A		; [0x50] = 0x05
  1559 0058D 1250          			COMA	0x50		; A = /R
  1560 0058E 3003          			JBC		C			; Check C = 0?
  1561 0058F 5071          			JMP	INS_FAIL
  1562 00590 3103          			JBC		DC			; Check DC = 0?
  1563 00591 5071          			JMP	INS_FAIL
  1564 00592 3203          			JBC		Z			; Check Z = 0?
  1565 00593 5071          			JMP	INS_FAIL
  1566 00594 3503          			JBC		OV			; Check OV = 0?
  1567 00595 5071          			JMP	INS_FAIL
  1568 00596 3E03          			JBS		N			; Check N = 1?
  1569 00597 5071          			JMP	INS_FAIL
  1570 00598 6CFA          			XOR		A,@0xFA		; Check Result ?
  1571 00599 3A03          			JBS		Z			; Check Z = 1?
  1572 0059A 5071          			JMP	INS_FAIL
  1573 0059B 3603          			JBC		N			; Check N = 0?
  1574 0059C 5071          			JMP	INS_FAIL
  1575 0059D               		INST_COM:			;-------Instruction Test => COM R
  1576 0059D 6016          			MOV		A,@0x16
  1577 0059E 015A          			MOV		INST,A
  1578 0059F 40EA          			CALL	STATUS_CLEAR
  1579 005A0 60FF          			MOV		A,@0xFF
  1580 005A1 0150          			MOV		0x50,A		; [0x50] = 0xFF
  1581 005A2 1350          			COM		0x50		; [0x50] = /[0x50]
  1582 005A3 1003          			MOV		A,STATUS
  1583 005A4 6C1C          			XOR		A,@0x1C		; Check Status ?
  1584                     			;;XOR		A,@0x14		; Check Status ?
  1585 005A5 3A03          			JBS		Z			; Check Z = 1?
  1586 005A6 5071          			JMP	INS_FAIL
  1587 005A7 3603          			JBC		N			; Check N = 0?
  1588 005A8 5071          			JMP	INS_FAIL
  1589 005A9 2203          			BC		Z
  1590 005AA 2603          			BC		N
  1591 005AB 1050          			MOV		A,0x50
  1592 005AC 6C00          			XOR		A,@0x00		; Check Result ?
  1593 005AD 3A03          			JBS		Z			; Check Z = 1?
  1594 005AE 5071          			JMP	INS_FAIL
  1595 005AF 3603          			JBC		N			; Check N = 0?
  1596 005B0 5071          			JMP	INS_FAIL
  1597 005B1 40EA          			CALL	STATUS_CLEAR
  1598 005B2 6000          			MOV		A,@0x00
  1599 005B3 0150          			MOV		0x50,A		; [0x50] = 0xFF
  1600 005B4 1350          			COM		0x50		; [0x50] = /[0x50]
  1601 005B5 1003          			MOV		A,STATUS
  1602 005B6 6C58          			XOR		A,@0x58		; Check Status ?
  1603                     			;;XOR		A,@0x50		; Check Status ?
  1604 005B7 3A03          			JBS		Z			; Check Z = 1?
  1605 005B8 5071          			JMP	INS_FAIL
  1606 005B9 3603          			JBC		N			; Check N = 0?
  1607 005BA 5071          			JMP	INS_FAIL
  1608 005BB 2203          			BC		Z
  1609 005BC 2603          			BC		N
  1610 005BD 1050          			MOV		A,0x50
  1611 005BE 6CFF          			XOR		A,@0xFF		; Check Result ?
  1612 005BF 3A03          			JBS		Z			; Check Z = 1?
  1613 005C0 5071          			JMP	INS_FAIL
  1614 005C1 3603          			JBC		N			; Check N = 0?
  1615 005C2 5071          			JMP	INS_FAIL
  1616 005C3               		INST_OR_A_K:		;-------Instruction Test => OR A,k
  1617 005C3 6026          			MOV		A,@0x26
  1618 005C4 015A          			MOV		INST,A
  1619 005C5 40EA          			CALL	STATUS_CLEAR
  1620 005C6 60A5          			MOV		A,@0xA5
  1621 005C7 645A          			OR		A,@0x5A		; A = 0xA5 | 0x5A
  1622 005C8 6CFF          			XOR		A,@0xFF		; Check Result ?
  1623 005C9 40ED          			CALL	INST_XOR_JUDGE
  1624 005CA 0012          		RET
  1625                     
  1626 005CB               	TEST_INST_LOGIC_II:
  1627 005CB               		INST_RR_R:			;-------Instruction Test => RR R
  1628 005CB 602B          			MOV		A,@0x2B
  1629 005CC 015A          			MOV		INST,A
  1630 005CD 40EA          			CALL	STATUS_CLEAR
  1631 005CE 6055          			MOV		A,@0x55
  1632 005CF 0150          			MOV		0x50,A		; [0x50] = 0x55
  1633 005D0 6F50          			RR		0x50		; [0x50] = [0x50] >> 1
  1634 005D1 1003          			MOV		A,STATUS
  1635 005D2 6C58          			XOR		A,@0x58		; Check Status ?
  1636                     			;;XOR		A,@0x50		; Check Status ?
  1637 005D3 40ED          			CALL	INST_XOR_JUDGE
  1638 005D4 1050          			MOV		A,0x50
  1639 005D5 6CAA          			XOR		A,@0xAA		; Check Result ?
  1640 005D6 40ED          			CALL	INST_XOR_JUDGE
  1641                     
  1642 005D7               		INST_RRA_R:			;-------Instruction Test => RRA R
  1643 005D7 602A          			MOV		A,@0x2A
  1644 005D8 015A          			MOV		INST,A
  1645 005D9 40EA          			CALL 	STATUS_CLEAR
  1646 005DA 6055          			MOV		A,@0x55
  1647 005DB 0150          			MOV		0x50,A		; [0x50] = 0x55
  1648 005DC 6E50          			RRA		0x50		; A = [0x50] >> 1
  1649 005DD 3003          			JBC		C			; Check C = 0?
  1650 005DE 5071          			JMP	INS_FAIL
  1651 005DF 3103          			JBC		DC			; Check DC = 0?
  1652 005E0 5071          			JMP	INS_FAIL
  1653 005E1 3203          			JBC		Z			; Check Z = 0?
  1654 005E2 5071          			JMP	INS_FAIL
  1655 005E3 3503          			JBC		OV			; Check OV = 0?
  1656 005E4 5071          			JMP	INS_FAIL
  1657 005E5 3E03          			JBS		N			; Check N = 1?
  1658 005E6 5071          			JMP	INS_FAIL
  1659 005E7 6CAA          			XOR		A,@0xAA		; Check Result ?
  1660 005E8 40ED          			CALL	INST_XOR_JUDGE
  1661                     
  1662 005E9               		INST_RRCA_R:		;-------Instruction Test => RRCA R
  1663 005E9 601B          			MOV		A,@0x1B
  1664 005EA 015A          			MOV		INST,A
  1665 005EB 40EA          			CALL	STATUS_CLEAR
  1666 005EC 2803          			BS		C
  1667 005ED 60AA          			MOV		A,@0xAA
  1668 005EE 0150          			MOV		0x50,A		; [0x50] = 0xAA
  1669 005EF 1850          			RRCA	0x50		; A = [0x50] >> 1
  1670 005F0 3003          			JBC		C			; Check C = 0?
  1671 005F1 5071          			JMP	INS_FAIL
  1672 005F2 3103          			JBC		DC			; Check DC = 0?
  1673 005F3 5071          			JMP	INS_FAIL
  1674 005F4 3203          			JBC		Z			; Check Z = 0?
  1675 005F5 5071          			JMP	INS_FAIL
  1676 005F6 3503          			JBC		OV			; Check OV = 0?
  1677 005F7 5071          			JMP	INS_FAIL
  1678 005F8 3E03          			JBS		N			; Check N = 1?
  1679 005F9 5071          			JMP	INS_FAIL
  1680 005FA 6CD5          			XOR		A,@0xD5		; Check Result ?
  1681 005FB 40ED          			CALL	INST_XOR_JUDGE
  1682 005FC 40EA          			CALL	STATUS_CLEAR
  1683 005FD 6055          			MOV		A,@0x55
  1684 005FE 0150          			MOV		0x50,A		; [0x50] = 0x55
  1685 005FF 1850          			RRCA	0x50		; A = [0x50] >> 1
  1686 00600 3803          			JBS		C			; Check C = 1?
  1687 00601 5071          			JMP	INS_FAIL
  1688 00602 3103          			JBC		DC			; Check DC = 0?
  1689 00603 5071          			JMP	INS_FAIL
  1690 00604 3203          			JBC		Z			; Check Z = 0?
  1691 00605 5071          			JMP	INS_FAIL
  1692 00606 3503          			JBC		OV			; Check OV = 0?
  1693 00607 5071          			JMP	INS_FAIL
  1694 00608 3603          			JBC		N			; Check N = 0?
  1695 00609 5071          			JMP	INS_FAIL
  1696 0060A 6C2A          			XOR		A,@0x2A		; Check Result ?
  1697 0060B 40ED          			CALL	INST_XOR_JUDGE
  1698 0060C               		INST_RRC_R:			;-------Instruction Test => RRC R
  1699 0060C 601C          			MOV		A,@0x1C
  1700 0060D 015A          			MOV		INST,A
  1701 0060E 40EA          			CALL	STATUS_CLEAR
  1702 0060F 2803          			BS		C
  1703 00610 60AA          			MOV		A,@0xAA
  1704 00611 0150          			MOV		0x50,A		; [0x50] = 0xAA
  1705 00612 2203          			BC		Z
  1706 00613 1950          			RRC		0x50		; [0x50] = [0x50] >> 1
  1707 00614 1003          			MOV		A,STATUS
  1708 00615 6C58          			XOR		A,@0x58		; Check Status ?
  1709                     			;;XOR		A,@0x50		; Check Status ?
  1710 00616 40ED          			CALL	INST_XOR_JUDGE
  1711 00617 1050          			MOV		A,0x50
  1712 00618 6CD5          			XOR		A,@0xD5		; Check Result ?
  1713 00619 40ED          			CALL	INST_XOR_JUDGE
  1714 0061A 40EA          			CALL	STATUS_CLEAR
  1715 0061B 6055          			MOV		A,@0x55
  1716 0061C 0150          			MOV		0x50,A		; [0x50] = 0x55
  1717 0061D 2203          			BC		Z
  1718 0061E 1950          			RRC		0x50		; [0x50] = [0x50] >> 1
  1719 0061F 1003          			MOV		A,STATUS
  1720 00620 6C19          			XOR		A,@0x19		; Check Status ?
  1721                     			;;XOR		A,@0x11		; Check Status ?
  1722 00621 3A03          			JBS		Z			; Check Z = 1?
  1723 00622 5071          			JMP	INS_FAIL
  1724 00623 3603          			JBC		N			; Check N = 0?
  1725 00624 5071          			JMP	INS_FAIL
  1726 00625 1050          			MOV		A,0x50
  1727 00626 6C2A          			XOR		A,@0x2A		; Check Result ?
  1728 00627 40ED          			CALL	INST_XOR_JUDGE
  1729 00628               		INST_RLCA_R:		;-------Instruction Test => RLCA R
  1730 00628 601D          			MOV		A,@0x1D
  1731 00629 015A          			MOV		INST,A
  1732 0062A 40EA          			CALL STATUS_CLEAR
  1733 0062B 2803          			BS		C
  1734 0062C 6055          			MOV		A,@0x55
  1735 0062D 0150          			MOV		0x50,A		; [0x50] = 0x55
  1736 0062E 1A50          			RLCA	0x50		; A = [0x50] << 1
  1737 0062F 3003          			JBC		C			; Check C = 0?
  1738 00630 5071          			JMP	INS_FAIL
  1739 00631 3103          			JBC		DC			; Check DC = 0?
  1740 00632 5071          			JMP	INS_FAIL
  1741 00633 3203          			JBC		Z			; Check Z = 0?
  1742 00634 5071          			JMP	INS_FAIL
  1743 00635 3503          			JBC		OV			; Check OV = 0?
  1744 00636 5071          			JMP	INS_FAIL
  1745 00637 3E03          			JBS		N			; Check N = 1?
  1746 00638 5071          			JMP	INS_FAIL
  1747 00639 6CAB          			XOR		A,@0xAB		; Check Result ?
  1748 0063A 40ED          			CALL	INST_XOR_JUDGE
  1749 0063B 40EA          			CALL	STATUS_CLEAR
  1750 0063C 60AA          			MOV		A,@0xAA
  1751 0063D 0150          			MOV		0x50,A		; [0x50] = 0xAA
  1752 0063E 1A50          			RLCA	0x50		; A = [0x50] << 1
  1753 0063F 3803          			JBS		C			; Check C = 1?
  1754 00640 5071          			JMP	INS_FAIL
  1755 00641 3103          			JBC		DC			; Check DC = 0?
  1756 00642 5071          			JMP	INS_FAIL
  1757 00643 3203          			JBC		Z			; Check Z = 0?
  1758 00644 5071          			JMP	INS_FAIL
  1759 00645 3503          			JBC		OV			; Check OV = 0?
  1760 00646 5071          			JMP	INS_FAIL
  1761 00647 3603          			JBC		N			; Check N = 0?
  1762 00648 5071          			JMP	INS_FAIL
  1763 00649 6C54          			XOR		A,@0x54		; Check Result ?
  1764 0064A 40ED          			CALL	INST_XOR_JUDGE
  1765 0064B               		INST_RLC_R:			;-------Instruction Test => RLC R
  1766 0064B 601E          			MOV		A,@0x1E
  1767 0064C 015A          			MOV		INST,A
  1768 0064D 40EA          			CALL	STATUS_CLEAR
  1769 0064E 2803          			BS		C
  1770 0064F 6055          			MOV		A,@0x55
  1771 00650 0150          			MOV		0x50,A		; [0x50] = 0x55
  1772 00651 1B50          			RLC		0x50		; [0x50] = [0x50] << 1
  1773 00652 1003          			MOV		A,STATUS
  1774 00653 6C58          			XOR		A,@0x58		; Check Status ?
  1775                     			;;XOR		A,@0x50		; Check Status ?
  1776 00654 40ED          			CALL	INST_XOR_JUDGE
  1777 00655 1050          			MOV		A,0x50
  1778 00656 6CAB          			XOR		A,@0xAB		; Check Result ?
  1779 00657 40ED          			CALL	INST_XOR_JUDGE
  1780 00658 40EA          			CALL	STATUS_CLEAR
  1781 00659 60AA          			MOV		A,@0xAA
  1782 0065A 0150          			MOV		0x50,A		; [0x50] = 0xAA
  1783 0065B 1B50          			RLC		0x50		; [0x50] = [0x50] << 1
  1784 0065C 1003          			MOV		A,STATUS
  1785 0065D 6C19          			XOR		A,@0x19		; Check Status ?
  1786                     			;;XOR		A,@0x11		; Check Status ?
  1787 0065E 40ED          			CALL	INST_XOR_JUDGE
  1788 0065F 1050          			MOV		A,0x50
  1789 00660 6C54          			XOR		A,@0x54		; Check Result ?
  1790 00661 40ED          			CALL	INST_XOR_JUDGE
  1791                     
  1792 00662               		INST_RLA_A:			;-------Instruction Test => RLA R
  1793 00662 602E          			MOV		A,@0x2E
  1794 00663 015A          			MOV		INST,A
  1795 00664 40EA          			CALL	STATUS_CLEAR
  1796 00665 605A          			MOV		A,@0x5A
  1797 00666 0150          			MOV		0x50,A		; [0x50] = 0x5A
  1798 00667 7250          			RLA		0x50		; A = [0x50] << 1
  1799 00668 3003          			JBC		C			; Check C = 0?
  1800 00669 5071          			JMP	INS_FAIL
  1801 0066A 3103          			JBC		DC			; Check DC = 0?
  1802 0066B 5071          			JMP	INS_FAIL
  1803 0066C 3203          			JBC		Z			; Check Z = 0?
  1804 0066D 5071          			JMP	INS_FAIL
  1805 0066E 3503          			JBC		OV			; Check OV = 0?
  1806 0066F 5071          			JMP	INS_FAIL
  1807 00670 3E03          			JBS		N			; Check N = 1?
  1808 00671 5071          			JMP	INS_FAIL
  1809 00672 6CB4          			XOR		A,@0xB4		; Check Result ?
  1810 00673 40ED          			CALL	INST_XOR_JUDGE
  1811                     
  1812 00674               		INST_RL_R:			;-------Instruction Test => RL R
  1813 00674 602F          			MOV		A,@0x2F
  1814 00675 015A          			MOV		INST,A
  1815 00676 40EA          			CALL	STATUS_CLEAR
  1816 00677 605A          			MOV		A,@0x5A
  1817 00678 0150          			MOV		0x50,A		; [0x50] = 0xA5
  1818 00679 7350          			RL		0x50		; [0x50] = [0x50] << 1
  1819 0067A 1003          			MOV		A,STATUS
  1820 0067B 6C58          			XOR		A,@0x58		; Check Status ?
  1821                     			;;XOR		A,@0x50		; Check Status ?
  1822 0067C 3A03          			JBS		Z			; Check Z = 1?
  1823 0067D 5071          			JMP	INS_FAIL
  1824 0067E 3603          			JBC		N			; Check N = 0?
  1825 0067F 5071          			JMP	INS_FAIL
  1826 00680 1050          			MOV		A,0x50
  1827 00681 6CB4          			XOR		A,@0xB4		; Check Result ?
  1828 00682 40ED          			CALL	INST_XOR_JUDGE
  1829 00683               		INST_XCH:			;-------Instruction Test => XCH R
  1830 00683 602D          			MOV		A,@0x2D
  1831 00684 015A          			MOV		INST,A
  1832 00685 40EA          			CALL	STATUS_CLEAR
  1833 00686 6055          			MOV		A,@0x55
  1834 00687 0150          			MOV		0x50,A		; [0x50] = 0x55
  1835 00688 60AA          			MOV		A,@0xAA
  1836 00689 7150          			XCH		0x50		; [0x50] <-> A
  1837 0068A 6C55          			XOR		A,@0x55		; Check Result ?
  1838 0068B 3A03          			JBS		Z			; Check Z = 1?
  1839 0068C 5071          			JMP	INS_FAIL
  1840 0068D 3603          			JBC		N			; Check N = 0?
  1841 0068E 5071          			JMP	INS_FAIL
  1842 0068F 1050          			MOV		A,0x50
  1843 00690 6CAA          			XOR		A,@0xAA		; Check Result ?
  1844 00691 40ED          			CALL	INST_XOR_JUDGE
  1845 00692 0012          		RET
  1846 00693               	TEST_INST_TRANSFER:
  1847 00693               		INST_MOV_R_A:		;-------Instruction Test => MOV R,A
  1848 00693 6007          			MOV		A,@0x07
  1849 00694 015A          			MOV		INST,A
  1850 00695 40EA          			CALL	STATUS_CLEAR
  1851 00696 60FF          			MOV		A,@0xFF
  1852 00697 0150          			MOV		0x50,A
  1853 00698 1003          			MOV		A,STATUS
  1854 00699 6C18          			XOR		A,@0x18		;At  OCDS
  1855                     			;XOR		A,@0x98		; Check Status ? ;; For not reset
  1856                     			;;XOR		A,@0x10		; Check Status ?
  1857 0069A 40ED          			CALL	INST_XOR_JUDGE
  1858 0069B 1050          			MOV		A,0x50
  1859 0069C 6CFF          			XOR		A,@0xFF		; Check Result ?
  1860 0069D 40ED          			CALL	INST_XOR_JUDGE
  1861 0069E               		INST_MOV_R_R:		;-------Instruction Test => MOV R,R
  1862 0069E 6014          			MOV		A,@0x14
  1863 0069F 015A          			MOV		INST,A
  1864 006A0 40EA          			CALL	STATUS_CLEAR
  1865 006A1 6000          			MOV		A,@0x00
  1866 006A2 0150          			MOV		0x50,A		; [0x50] = 0x00		
  1867 006A3 1150          			MOV		0x50,0x50	; [0x50] = [0x50]
  1868 006A4 1003          			MOV		A,STATUS
  1869 006A5 6C1C          			XOR		A,@0x1C		; Check Status ?
  1870                     			;;XOR		A,@0x14		; Check Status ?
  1871 006A6 3A03          			JBS		Z			; Check Z = 1?
  1872 006A7 5071          			JMP	INS_FAIL
  1873 006A8 3603          			JBC		N			; Check N = 0?
  1874 006A9 5071          			JMP	INS_FAIL
  1875 006AA 1050          			MOV		A,0x50
  1876 006AB 2203          			BC		Z
  1877 006AC 6C00          			XOR		A,@0x00		; Check Result ?
  1878 006AD 3A03          			JBS		Z			; Check Z = 1?
  1879 006AE 5071          			JMP	INS_FAIL
  1880 006AF 3603          			JBC		N			; Check N = 0?
  1881 006B0 5071          			JMP	INS_FAIL
  1882 006B1 40EA          			CALL	STATUS_CLEAR
  1883 006B2 6000          			MOV		A,@0x00
  1884 006B3 0150          			MOV		0x50,A		; [0x50] = 0x00		
  1885 006B4 1150          			MOV		0x50,0x50	; [0x50] = [0x50]
  1886 006B5 2850          			BS		0x50,0
  1887 006B6 1050          			MOV		A,0x50
  1888 006B7 6C01          			XOR		A,@0x01		; Check Result ?
  1889 006B8 40ED          			CALL	INST_XOR_JUDGE
  1890                     
  1891 006B9               		INST_SWAPA_R:		;-------Instruction Test => SWAPA R
  1892 006B9 601F          			MOV		A,@0x1F
  1893 006BA 015A          			MOV		INST,A
  1894 006BB 40EA          			CALL	STATUS_CLEAR
  1895 006BC 605A          			MOV		A,@0x5A
  1896 006BD 0150          			MOV		0x50,A		; [0x50] = 0x5A
  1897 006BE 1C50          			SWAPA	0x50
  1898 006BF 6CA5          			XOR		A,@0xA5		; Check Result ?
  1899 006C0 40ED          			CALL	INST_XOR_JUDGE
  1900 006C1               		INST_SWAP_R:		;-------Instruction Test => SWAP R
  1901 006C1 6020          			MOV		A,@0x20
  1902 006C2 015A          			MOV		INST,A
  1903 006C3 40EA          			CALL	STATUS_CLEAR
  1904 006C4 605A          			MOV		A,@0x5A
  1905 006C5 0150          			MOV		0x50,A		; [0x50] = 0x5A
  1906 006C6 1D50          			SWAP	0x50
  1907 006C7 1050          			MOV		A,0x50
  1908 006C8 6CA5          			XOR		A,@0xA5		; Check Result ?
  1909 006C9 40ED          			CALL	INST_XOR_JUDGE
  1910 006CA 0012          		RET
  1911                     
  1912 006CB               	TEST_INST_MANIPULATION:
  1913 006CB 0012          		RET
  1914                     
  1915 006CC               	TEST_INST_BRANCH_I:
  1916 006CC               		INST_DJZ_R:			;------- Instruction Test => DJZ R
  1917 006CC 601A          			MOV		A,@0x1A
  1918 006CD 015A          			MOV		INST,A
  1919 006CE 40EA          			CALL	STATUS_CLEAR
  1920 006CF 6001          			MOV		A,@0x01
  1921 006D0 0150          			MOV		0x50,A		; [0x50] = 0x01
  1922 006D1 1750          			DJZ		0x50		; [0x50] = [0x50] - 1,if z,skip
  1923 006D2 5071          			JMP		INS_FAIL
  1924 006D3 1050          			MOV		A,0x50
  1925 006D4 6C00          			XOR		A,@0x00		; Check Result ?
  1926 006D5 40ED          			CALL	INST_XOR_JUDGE	
  1927 006D6 40EA          			CALL	STATUS_CLEAR
  1928 006D7 6002          			MOV		A,@0x02
  1929 006D8 0150          			MOV		0x50,A		; [0x50] = 0x02
  1930 006D9 1750          			DJZ		0x50		; [0x50] = [0x50] - 1,if z,skip
  1931 006DA 56DC          			JMP		$+2
  1932 006DB 5071          			JMP		INS_FAIL
  1933 006DC               		INST_DJZA_R:		;------- Instruction Test => DJZA R
  1934 006DC 6019          			MOV		A,@0x19
  1935 006DD 015A          			MOV		INST,A
  1936 006DE 40EA          			CALL	STATUS_CLEAR
  1937 006DF 6001          			MOV		A,@0x01
  1938 006E0 0150          			MOV		0x50,A		; [0x50] = 0x01
  1939 006E1 1650          			DJZA	0x50		; A = [0x50] - 0x01,if z,skip
  1940 006E2 5071          			JMP	INS_FAIL
  1941 006E3 6C00          			XOR		A,@0x00		; Check Result ?
  1942 006E4 40ED          			CALL	INST_XOR_JUDGE
  1943 006E5 40EA          			CALL	STATUS_CLEAR
  1944 006E6 6002          			MOV		A,@0x02
  1945 006E7 0150          			MOV		0x50,A		; [0x50] = 0x02
  1946 006E8 1650          			DJZA	0x50		; A = [0x50] - 0x01,if z,skip
  1947 006E9 56EB          			JMP		$+2
  1948 006EA 5071          			JMP	INS_FAIL
  1949 006EB               		INST_JZA_R:			;-------Instruction Test => JZA R
  1950 006EB 6021          			MOV		A,@0x21
  1951 006EC 015A          			MOV		INST,A
  1952 006ED 40EA          			CALL	STATUS_CLEAR
  1953 006EE 60FF          			MOV		A,@0xFF
  1954 006EF 0150          			MOV		0x50,A
  1955 006F0 1E50          			JZA		0x50		; A = [0x50] + 1,if 0 skip
  1956 006F1 5071          			JMP		INS_FAIL
  1957 006F2 6C00          			XOR		A,@0x00		; Check Result ?
  1958 006F3 40ED          			CALL	INST_XOR_JUDGE
  1959 006F4 40EA          			CALL	STATUS_CLEAR
  1960 006F5 6080          			MOV		A,@0x80
  1961 006F6 0150          			MOV		0x50,A
  1962 006F7 1E50          			JZA		0x50		; A = [0x50] + 1,if 0 skip
  1963 006F8 56FA          			JMP		$+2
  1964 006F9 5071          			JMP		INS_FAIL
  1965 006FA               		INST_JZ_R:			;-------Instruction Test => JZ R
  1966 006FA 6022          			MOV		A,@0x22
  1967 006FB 015A          			MOV		INST,A
  1968 006FC 40EA          			CALL	STATUS_CLEAR
  1969 006FD 60FF          			MOV		A,@0xFF
  1970 006FE 0150          			MOV		0x50,A		; [0x50] = 0xFF
  1971 006FF 1F50          			JZ		0x50		; [0x50] = [0x50] + 1,if 0 skip
  1972 00700 5071          			JMP		INS_FAIL
  1973 00701 1050          			MOV		A,0x50
  1974 00702 6C00          			XOR		A,@0x00		; Check Result ?
  1975 00703 40ED          			CALL	INST_XOR_JUDGE
  1976 00704 40EA          			CALL	STATUS_CLEAR
  1977 00705 6080          			MOV		A,@0x80
  1978 00706 0150          			MOV		0x50,A		; [0x50] = 0xFF
  1979 00707 1F50          			JZ		0x50		; [0x50] = [0x50] + 1,if 0 skip
  1980 00708 570A          			JMP		$+2
  1981 00709 5071          			JMP		INS_FAIL
  1982 0070A 0012          		RET
  1983 0070B               	TEST_INST_BRANCH_II:
  1984 0070B               		INST_JE_R:			;-------Instruction Test => JE R
  1985 0070B 6023          			MOV		A,@0x23
  1986 0070C 015A          			MOV		INST,A
  1987 0070D 40EA          			CALL	STATUS_CLEAR
  1988 0070E 605A          			MOV		A,@0x5A
  1989 0070F 0150          			MOV		0x50,A		; [0x50] = 0x5A
  1990 00710 6150          			JE		0x50		; [0x50] = A?
  1991 00711 5071          			JMP		INS_FAIL
  1992 00712 605B          			MOV		A,@0x5B
  1993 00713 0150          			MOV		0x50,A		; [0x50] = 0x5B
  1994 00714 605C          			MOV		A,@0x5C
  1995 00715 6150          			JE		0x50		; [0x50] = A(0x5C)?
  1996 00716 5718          			JMP		$+2
  1997 00717 5071          			JMP		INS_FAIL
  1998 00718               		INST_JGE_R:			;-------Instruction Test => JGE R
  1999 00718 6024          			MOV		A,@0x24
  2000 00719 015A          			MOV		INST,A
  2001 0071A 40EA          			CALL	STATUS_CLEAR
  2002 0071B 607F          			MOV		A,@0x7F
  2003 0071C 0150          			MOV		0x50,A		; [0x50] = 0x7F
  2004 0071D 6000          			MOV		A,@0x00
  2005 0071E 6250          			JGE		0x50		; [0x50] > A ?
  2006 0071F 5071          			JMP		INS_FAIL
  2007 00720 40EA          			CALL	STATUS_CLEAR
  2008 00721 60FF          			MOV		A,@0xFF
  2009 00722 0150          			MOV		0x50,A		; [0x50] = 0xFF
  2010 00723 6080          			MOV		A,@0x80
  2011 00724 6250          			JGE		0x50		; [0x50] > A ?
  2012 00725 5071          			JMP		INS_FAIL
  2013 00726 40EA          			CALL	STATUS_CLEAR
  2014 00727 6000          			MOV		A,@0x00
  2015 00728 0150          			MOV		0x50,A		; [0x50] = 0x00
  2016 00729 60FF          			MOV		A,@0xFF
  2017 0072A 6250          			JGE		0x50		; [0x50] > A(0xFF) ?x
  2018 0072B 572D          			JMP		$+2
  2019 0072C 5071          			JMP		INS_FAIL
  2020                     
  2021 0072D               		INST_JLE_R:			;-------Instruction Test => JLE R
  2022 0072D 6025          			MOV		A,@0x25
  2023 0072E 015A          			MOV		INST,A
  2024 0072F 40EA          			CALL	STATUS_CLEAR
  2025 00730 6000          			MOV		A,@0x00
  2026 00731 0150          			MOV		0x50,A		; [0x50] = 0x00
  2027 00732 607F          			MOV		A,@0x7F
  2028 00733 6350          			JLE		0x50		; [0x50] < A ?
  2029 00734 5071          			JMP		INS_FAIL
  2030 00735 6000          			MOV		A,@0x00
  2031 00736 0103          			MOV		STATUS,A
  2032 00737 6080          			MOV		A,@0x80
  2033 00738 0150          			MOV		0x50,A		; [0x50] = 0x80
  2034 00739 60FF          			MOV		A,@0xFF
  2035 0073A 6350          			JLE		0x50		; [0x50] < A ?
  2036 0073B 5071          			JMP		INS_FAIL
  2037 0073C 40EA          			CALL	STATUS_CLEAR
  2038 0073D 60FF          			MOV		A,@0xFF
  2039 0073E 0150          			MOV		0x50,A		; [0x50] = 0xFF
  2040 0073F 6000          			MOV		A,@0x00
  2041 00740 6350          			JLE		0x50		; [0x50] < A(0x00) ?x
  2042 00741 5743          			JMP		$+2
  2043 00742 5071          			JMP		INS_FAIL
  2044 00743               		INST_JE_K:			;-------Instruction Test => JE k
  2045 00743 6027          			MOV		A,@0x27
  2046 00744 015A          			MOV		INST,A
  2047 00745 40EA          			CALL	STATUS_CLEAR
  2048 00746 607F          			MOV		A,@0x7F
  2049 00747 657F          			JE		@0x7F
  2050 00748 5071          			JMP	INS_FAIL
  2051 00749 0012          		RET
  2052 0074A               	TEST_INST_BRANCH_III:
  2053 0074A               		INST_CALL_K:		;-------Instruction Test => CALL k
  2054 0074A 6002          			MOV	A,@0x02
  2055 0074B 015A          			MOV	INST,A
  2056 0074C 40EA          			CALL	STATUS_CLEAR
  2057 0074D 6003          			MOV		A,@0x03
  2058 0074E 0150          			MOV		0x50,A
  2059 0074F 4816          			CALL	CALL_Test
  2060 00750 1050          			MOV		A,0x50
  2061 00751 6C04          			XOR		A,@0x04
  2062 00752 40ED          			CALL	INST_XOR_JUDGE
  2063                     
  2064 00753               		INST_LCALL_K:		;-------Instruction Test => LCALL k
  2065 00753 6003          			MOV		A,@0x03
  2066 00754 015A          			MOV		INST,A
  2067 00755 40EA          			CALL	STATUS_CLEAR
  2068 00756 6003          			MOV		A,@0x03
  2069 00757 0151          			MOV		0x51,A
  2070 00758 7A80          			LCALL	LCALL_Test
  2070 00759 1000          			LCALL	LCALL_Test
  2071 0075A 1051          			MOV		A,0x51
  2072 0075B 6C04          			XOR		A,@0x04		; Check Result ?
  2073 0075C 40ED          			CALL	INST_XOR_JUDGE
  2074                     
  2075 0075D               		INST_RETL_K:		;-------Instruction Test => RETL k
  2076 0075D 602C          			MOV		A,@0x2C
  2077 0075E 015A          			MOV		INST,A
  2078 0075F 40EA          			CALL	STATUS_CLEAR
  2079 00760 6000          			MOV		A,@0x00
  2080 00761 4EF0          			CALL	INST_RETL_TABLE
  2081 00762 6CA1          			XOR		A,@0xA1
  2082 00763 40ED          			CALL	INST_XOR_JUDGE
  2083 00764 6001          			MOV		A,@0x01
  2084 00765 4EF0          			CALL	INST_RETL_TABLE
  2085 00766 6CA2          			XOR		A,@0xA2
  2086 00767 40ED          			CALL	INST_XOR_JUDGE
  2087 00768 6002          			MOV		A,@0x02
  2088 00769 4EF0          			CALL	INST_RETL_TABLE
  2089 0076A 6CA4          			XOR		A,@0xA4
  2090 0076B 40ED          			CALL	INST_XOR_JUDGE
  2091 0076C 6003          			MOV		A,@0x03
  2092 0076D 4EF0          			CALL	INST_RETL_TABLE
  2093 0076E 6CA8          			XOR		A,@0xA8
  2094 0076F 40ED          			CALL	INST_XOR_JUDGE
  2095 00770 0012          		RET
  2096 00771               	TEST_INST_CONTROL:
  2097 00771               		INST_ENI:			;-------Instruction Test => ENI , IT?
  2098 00771 6004          			MOV		A,@0x04
  2099 00772 015A          			MOV		INST,A
  2100 00773 0010          			ENI
  2101 00774 3F03          			JBS		IT		; Check IT = 1?
  2102 00775 5071          			JMP	INS_FAIL
  2103 00776               		INST_DISI:			;-------Instruction Test => DISI , IT?
  2104 00776 6005          			MOV		A,@0x05
  2105 00777 015A          			MOV		INST,A
  2106 00778 0011          			DISI
  2107 00779 3703          			JBC		IT		; Check IT = 0?
  2108 0077A 5071          			JMP	INS_FAIL
  2109 0077B 0012          		RET
  2110                     
  2111 0077C               	TEST_SHORT_BRANCH:
  2112                     		;ORG	0x800
  2113 0077C 40EA          		CALL	STATUS_CLEAR
  2114 0077D 2803          		BS	C
  2115 0077E 6903          		SJC		@0x03
  2116 0077F 506B          		JMP		JMP_FAIL
  2117 00780 506B          		JMP		JMP_FAIL
  2118 00781 506B          		JMP		JMP_FAIL
  2119 00782 2003          		BC	C
  2120 00783 6A03          		SJNC	bbb		;@0x03
  2121 00784 506B          		JMP		JMP_FAIL
  2122 00785 506B          		JMP		JMP_FAIL
  2123 00786 506B          		JMP		JMP_FAIL
  2124 00787               		bbb:		
  2125 00787 2A03          			BS		Z
  2126 00788 6B03          			SJZ		@0x03
  2127 00789 506B          			JMP		JMP_FAIL
  2128 0078A 506B          			JMP		JMP_FAIL
  2129 0078B 506B          			JMP		JMP_FAIL
  2130 0078C 0200          			CLRA
  2131 0078D 6B03          			SJZ		@0x03
  2132 0078E 506B          			JMP		JMP_FAIL
  2133 0078F 506B          			JMP		JMP_FAIL
  2134 00790 506B          			JMP		JMP_FAIL
  2135 00791 5799          		JMP		IATEST1		;JMP back Test as below
  2136 00792               		aaa:	
  2137 00792 57A6          			JMP	IATEST2		; -9
  2138 00793 506B          			JMP	JMP_FAIL	; -8
  2139 00794 506B          			JMP	JMP_FAIL	; -7
  2140 00795 506B          			JMP	JMP_FAIL	; -6
  2141 00796 506B          			JMP	JMP_FAIL	; -5
  2142 00797 506B          			JMP	JMP_FAIL	; -4
  2143 00798 506B          			JMP	JMP_FAIL	; -3
  2144 00799               		IATEST1:	
  2145 00799 2803          			BS		C		; -2
  2146 0079A 69F7          			SJC		aaa		; -1
  2147 0079B 69F7          			SJC		@0xF7	; -1
  2148 0079C 506B          			JMP		JMP_FAIL
  2149 0079D 506B          			JMP		JMP_FAIL
  2150 0079E 506B          			JMP		JMP_FAIL
  2151 0079F 57B2          			JMP		IATEST3		; -9
  2152 007A0 506B          			JMP		JMP_FAIL	; -8
  2153 007A1 506B          			JMP		JMP_FAIL	; -7
  2154 007A2 506B          			JMP		JMP_FAIL	; -6
  2155 007A3 506B          			JMP		JMP_FAIL	; -5
  2156 007A4 506B          			JMP		JMP_FAIL	; -4
  2157 007A5 506B          			JMP		JMP_FAIL	; -3
  2158 007A6               		IATEST2:	
  2159 007A6 2003          			BC		C		; -2
  2160 007A7 6AF7          			SJNC		@0xF7	; -1
  2161 007A8 57C3          			JMP		_IPass
  2162 007A9 57C3          			JMP		_IPass
  2163 007AA 57C3          			JMP		_IPass
  2164 007AB 57BE          			JMP		IATEST4		; -9
  2165 007AC 506B          			JMP		JMP_FAIL	; -8
  2166 007AD 506B          			JMP		JMP_FAIL	; -7
  2167 007AE 506B          			JMP		JMP_FAIL	; -6
  2168 007AF 506B          			JMP		JMP_FAIL	; -5
  2169 007B0 506B          			JMP		JMP_FAIL	; -4
  2170 007B1 506B          			JMP		JMP_FAIL	; -3
  2171 007B2               		IATEST3:	
  2172 007B2 2A03          			BS		Z		; -2
  2173 007B3 6BF7          			SJZ		@0xF7	; -1
  2174 007B4 506B          			JMP		JMP_FAIL
  2175 007B5 506B          			JMP		JMP_FAIL
  2176 007B6 506B          			JMP		JMP_FAIL
  2177                     
  2178 007B7 57C3          			JMP		_IPass		; -9
  2179 007B8 506B          			JMP		JMP_FAIL	; -8
  2180 007B9 506B          			JMP		JMP_FAIL	; -7
  2181 007BA 506B          			JMP		JMP_FAIL	; -6
  2182 007BB 506B          			JMP		JMP_FAIL	; -5
  2183 007BC 506B          			JMP		JMP_FAIL	; -4
  2184 007BD 506B          			JMP		JMP_FAIL	; -3
  2185 007BE               		IATEST4:	
  2186 007BE 2203          			BC		Z		; -2
  2187 007BF 6DF7          			SJNZ	@0xF7	; -1
  2188 007C0 506B          			JMP		JMP_FAIL
  2189 007C1 506B          			JMP		JMP_FAIL
  2190 007C2 506B          			JMP		JMP_FAIL
  2191 007C3               		_IPass:
  2192 007C3 0000          				NOP
  2193 007C4 0012          		RET
  2194                     
  2195 007C5               	TEST_READ_ROM:
  2196 007C5               		INST_TBLRD_R:
  2197 007C5 6028          			MOV		A,@0x28
  2198 007C6 015A          			MOV		INST,A
  2199 007C7 7A01          			SBANK	1
  2200 007C8 60F1          			MOV		A,@0xF1		;ADDR(0x0EF1)
  2201 007C9 0145          			MOV		TBPTL,A
  2202 007CA 600E          			MOV		A,@0x0E
  2203 007CB 0146          			MOV		TBPTH,A
  2204 007CC 7A00          			SBANK	0
  2205 007CD 6750          			TBRDA	0x50		; [0x50]+ A = [TABPTR] 
  2206 007CE 6CA1          			XOR		A,@0xA1
  2207 007CF 40ED          			CALL	INST_XOR_JUDGE
  2208 007D0 1050          			MOV		A,0x50
  2209 007D1 6C70          			XOR		A,@0x70
  2210 007D2 40ED          			CALL	INST_XOR_JUDGE
  2211                     
  2212 007D3 7A01          			SBANK	1
  2213                     			;MOV		A,@0xF1		;ADDR(0x0EF1)
  2214                     			;MOV		TBPTL,A
  2215                     			;MOV		A,@0x0E
  2216                     			;MOV		TBPTH,A
  2217 007D4 1545          			INC		TBPTL		;ADDR(0x0EF2)
  2218 007D5 7A00          			SBANK	0
  2219 007D6 6750          			TBRDA	0x50		; [0x50]+ A = [TABPTR] 
  2220 007D7 6CA2          			XOR		A,@0xA2
  2221 007D8 40ED          			CALL	INST_XOR_JUDGE
  2222 007D9 1050          			MOV		A,0x50
  2223 007DA 6C70          			XOR		A,@0x70
  2224 007DB 40ED          			CALL	INST_XOR_JUDGE
  2225 007DC               		INST_TBRD_R:		;-------Instruction Test => TBRD R
  2226 007DC 6033          			MOV		A,@0x33
  2227 007DD 015A          			MOV		INST,A
  2228 007DE 7A01          			SBANK	1
  2229 007DF 60F3          			MOV		A,@0xF3		;ADDR(0x0EF3)
  2230 007E0 0145          			MOV		TBPTL,A
  2231 007E1 600E          			MOV		A,@0x0E
  2232 007E2 0146          			MOV		TBPTH,A
  2233 007E3 7A00          			SBANK	0
  2234 007E4 7B50          			TBRD	0x50
  2235 007E5 1050          			MOV		A,0x50
  2236 007E6 6CA4          			XOR		A,@0xA4
  2237 007E7 40ED          			CALL	INST_XOR_JUDGE
  2238                     
  2239 007E8 7A01          			SBANK	1
  2240                     			;MOV		A,@0xF3
  2241                     			;MOV		TBPTL,A
  2242                     			;MOV		A,@0x0E
  2243                     			;MOV		TBPTH,A
  2244 007E9 1545          			INC		TBPTL		;ADDR(0x0EF4)
  2245 007EA 7A00          			SBANK	0
  2246 007EB 7B50          			TBRD	0x50
  2247 007EC 1050          			MOV		A,0x50
  2248 007ED 6CA8          			XOR		A,@0xA8
  2249 007EE 40ED          			CALL	INST_XOR_JUDGE
  2250 007EF 0012          		RET
  2251                     
  2252 007F0               	TEST_STACK:
  2253 007F0 7A01          		SBANK	1
  2254 007F1 1047          		MOV		A,STKMON
  2255 007F2 6C01          		XOR		A,@0x01
  2256 007F3 40ED          		CALL	INST_XOR_JUDGE
  2257 007F4 47F6          		CALL	STACK1
  2258 007F5 0012          		RET
  2259 007F6               	STACK1:
  2260 007F6 1047          		MOV		A,STKMON
  2261 007F7 6C02          		XOR		A,@0x02
  2262 007F8 40ED          		CALL	INST_XOR_JUDGE
  2263 007F9 47FB          		CALL	STACK2
  2264 007FA 0012          		RET
  2265 007FB               	STACK2:
  2266 007FB 1047          		MOV		A,STKMON
  2267 007FC 6C03          		XOR		A,@0x03
  2268 007FD 40ED          		CALL	INST_XOR_JUDGE
  2269 007FE 4800          		CALL	STACK3
  2270 007FF 0012          		RET
  2271 00800               	STACK3:
  2272 00800 1047          		MOV		A,STKMON
  2273 00801 6C04          		XOR		A,@0x04
  2274 00802 40ED          		CALL	INST_XOR_JUDGE
  2275 00803 4805          		CALL	STACK4
  2276 00804 0012          		RET
  2277 00805               	STACK4:
  2278 00805 1047          		MOV		A,STKMON
  2279 00806 6C05          		XOR		A,@0x05
  2280 00807 40ED          		CALL	INST_XOR_JUDGE
  2281 00808 480A          		CALL	STACK5
  2282 00809 0012          		RET
  2283 0080A               	STACK5:
  2284 0080A 1047          		MOV		A,STKMON
  2285 0080B 6C06          		XOR		A,@0x06
  2286 0080C 40ED          		CALL	INST_XOR_JUDGE
  2287 0080D 480F          		CALL	STACK6
  2288 0080E 0012          		RET
  2289 0080F               	STACK6:
  2290 0080F 1047          		MOV		A,STKMON
  2291 00810 6C07          		XOR		A,@0x07
  2292 00811 40ED          		CALL	INST_XOR_JUDGE
  2293 00812 4814          		CALL	STACK7
  2294 00813 0012          		RET
  2295 00814               	STACK7:
  2296 00814 0000          		NOP
  2297                     		;CALL	INST_XOR_JUDGE ;Sack Over(Shut Down Tst)
  2298 00815 0012          		RET
  2299                     
  2300 00816               	CALL_Test:
  2301 00816 1550          		INC		0x50
  2302 00817 0012          		RET
  2303                     ;================== EEPROM Test Routine =====================
  2304                     
  2305                     ;================== Return Table ============================
  2306                     ORG	0x0EF0	; ADDR(3824)
  2307 00EF0               	INST_RETL_TABLE:
  2308 00EF0 0F02          		ADD		PCL, A	;BackUp PC to STACK,then SEARCH TABLE By PC
  2309 00EF1 70A1          		RETL	@0xA1
  2310 00EF2 70A2          		RETL	@0xA2
  2311 00EF3 70A4          		RETL	@0xA4
  2312 00EF4 70A8          		RETL	@0xA8
  2313 00EF5 701A          		RETL	@0x1A
  2314 00EF6 702A          		RETL	@0x2A
  2315 00EF7 704A          		RETL	@0x4A
  2316 00EF8 708A          		RETL	@0x8A
  2317                     
  2318                     ;================== RAM Test Routine ========================
  2319                     ORG	0x0F00	; ADDR(3840)
  2320 00F00               	TEST_RAM_BANK_0_5:
  2321 00F00 6080          		MOV		A,@0x80		; Write Start SRAM(0x55)
  2322 00F01 0104          		MOV		RSR,A
  2323 00F02 7A40          		GBANK	0
  2324 00F03 6055          		MOV		A,@0x55
  2325 00F04 0100          		MOV		IAR,A
  2326 00F05 1504          		INC		RSR
  2327 00F06 6000          		MOV		A,@0x00
  2328 00F07 0C04          		XOR		A,RSR		; INC(0x80),UNTIL(0x00)
  2329 00F08 3A03          		JBS		Z
  2330 00F09 5F03          		JMP		$-6
  2331 00F0A 6080          		MOV		A,@0x80		; Read Start SRAM(0x55)
  2332 00F0B 0104          		MOV		RSR,A
  2333 00F0C 7A40          		GBANK	0
  2334 00F0D 6055          		MOV		A,@0x55
  2335 00F0E 0D00          		XOR		IAR,A
  2336 00F0F 3A03          		JBS		Z
  2337 00F10 506E          		JMP		RAM_FAIL
  2338 00F11 1504          		INC		RSR
  2339 00F12 6000          		MOV		A,@0x00
  2340 00F13 0C04          		XOR		A,RSR		; INC(0x80),UNTIL(0x00)
  2341 00F14 3A03          		JBS		Z
  2342 00F15 5F0D          		JMP		$-8
  2343 00F16 0012          		RET
  2344 00F17               	TEST_RAM_BANK_0_A:
  2345 00F17 6080          		MOV		A,@0x80		; Write Start SRAM(0xAA)
  2346 00F18 0104          		MOV		RSR,A
  2347 00F19 7A40          		GBANK	0
  2348 00F1A 60AA          		MOV		A,@0xAA		; SRAM(0xAA)
  2349 00F1B 0100          		MOV		IAR,A
  2350 00F1C 1504          		INC		RSR
  2351 00F1D 6000          		MOV		A,@0x00
  2352 00F1E 0C04          		XOR		A,RSR		; INC(0x80),UNTIL(0x00)
  2353 00F1F 3A03          		JBS		Z
  2354 00F20 5F1A          		JMP		$-6
  2355 00F21 6080          		MOV		A,@0x80
  2356 00F22 0104          		MOV		RSR,A
  2357 00F23 7A40          		GBANK	0
  2358 00F24 60AA          		MOV		A,@0xAA
  2359 00F25 0D00          		XOR		IAR,A
  2360 00F26 3A03          		JBS		Z
  2361 00F27 506E          		JMP		RAM_FAIL
  2362 00F28 1504          		INC		RSR
  2363 00F29 6000          		MOV		A,@0x00
  2364 00F2A 0C04          		XOR		A,RSR		; INC(0x80),UNTIL(0x00)
  2365 00F2B 3A03          		JBS		Z
  2366 00F2C 5F24          		JMP		$-8
  2367 00F2D 0012          		RET
  2368 00F2E               	TEST_RAM_BANK_1_3:
  2369 00F2E 6080          		MOV		A,@0x80		; Write Start SRAM(0x33)
  2370 00F2F 0104          		MOV		RSR,A
  2371 00F30 7A41          		GBANK	1
  2372 00F31 6033          		MOV		A,@0x33		; SRAM(0x33)
  2373 00F32 0100          		MOV		IAR,A
  2374 00F33 1504          		INC		RSR
  2375 00F34 6000          		MOV		A,@0x00
  2376 00F35 0C04          		XOR		A,RSR		; INC(0x80),UNTIL(0x00)
  2377 00F36 3A03          		JBS		Z
  2378 00F37 5F31          		JMP		$-6
  2379 00F38 6080          		MOV		A,@0x80
  2380 00F39 0104          		MOV		RSR,A
  2381 00F3A 7A41          		GBANK	1
  2382 00F3B 6033          		MOV		A,@0x33
  2383 00F3C 0D00          		XOR		IAR,A
  2384 00F3D 3A03          		JBS		Z
  2385 00F3E 506E          		JMP		RAM_FAIL
  2386 00F3F 1504          		INC		RSR
  2387 00F40 6000          		MOV		A,@0x00
  2388 00F41 0C04          		XOR		A,RSR		; INC(0x80),UNTIL(0x00)
  2389 00F42 3A03          		JBS		Z
  2390 00F43 5F3B          		JMP		$-8
  2391 00F44 0012          		RET
  2392 00F45               	TEST_RAM_BANK_1_C:
  2393 00F45 6080          		MOV		A,@0x80		; Write Start SRAM(0xCC)
  2394 00F46 0104          		MOV		RSR,A
  2395 00F47 7A41          		GBANK	1
  2396 00F48 60CC          		MOV		A,@0xCC		; SRAM(0xCC)
  2397 00F49 0100          		MOV		IAR,A
  2398 00F4A 1504          		INC		RSR
  2399 00F4B 6000          		MOV		A,@0x00
  2400 00F4C 0C04          		XOR		A,RSR		; INC(0x80),UNTIL(0x00)
  2401 00F4D 3A03          		JBS		Z
  2402 00F4E 5F48          		JMP		$-6
  2403 00F4F 6080          		MOV		A,@0x80
  2404 00F50 0104          		MOV		RSR,A
  2405 00F51 7A41          		GBANK	1
  2406 00F52 60CC          		MOV		A,@0xCC
  2407 00F53 0D00          		XOR		IAR,A
  2408 00F54 3A03          		JBS		Z
  2409 00F55 506E          		JMP		RAM_FAIL
  2410 00F56 1504          		INC		RSR
  2411 00F57 6000          		MOV		A,@0x00
  2412 00F58 0C04          		XOR		A,RSR		; INC(0x80),UNTIL(0x00)
  2413 00F59 3A03          		JBS		Z
  2414 00F5A 5F52          		JMP		$-8
  2415 00F5B 0012          		RET
  2416                     
  2417                     
  2418                     ;================== Long Sub Routine ========================
  2419                     ORG	0x1000	; >4K
  2420 01000               	LCALL_Test:
  2421 01000 1551          		INC		0x51
  2422 01001 0012          		RET
  0 Error(s), 0 Warning(s), 0 User Message(s)